MSP430 Assembler PC v20.2.2 Fri Oct 30 22:03:02 2020

Copyright (c) 2003-2018 Texas Instruments Incorporated
C:\Users\tyler\AppData\Local\Temp\{AE531C7E-F4C8-4E89-9BF9-24F4C1D7A278} PAGE    1

       1            ;******************************************************************************
       2            ;* MSP430 G3 C/C++ Codegen                                              PC v20.2.2.LTS *
       3            ;* Date/Time created: Fri Oct 30 22:03:02 2020                                *
       4            ;******************************************************************************
       5                    .compiler_opts --abi=eabi --diag_wrap=off --hll_source=on --mem_model:code=small --mem_model:d
       6            
       7            $C$DW$CU        .dwtag  DW_TAG_compile_unit
       8                    .dwattr $C$DW$CU, DW_AT_name("../main.c")
       9                    .dwattr $C$DW$CU, DW_AT_producer("TI MSP430 G3 C/C++ Codegen PC v20.2.2.LTS Copyright (c) 2003
      10                    .dwattr $C$DW$CU, DW_AT_TI_version(0x01)
      11                    .dwattr $C$DW$CU, DW_AT_comp_dir("C:\Users\tyler\OneDrive\Desktop\CPE-325\lab8\Lab008\Debug")
      12            ;       Interrupt vector table mappings
      13 000000               .intvec ".int57",       watchdog_timer
         000000       
      14            $C$DW$1 .dwtag  DW_TAG_variable
      15                    .dwattr $C$DW$1, DW_AT_name("PBSEL_L")
      16                    .dwattr $C$DW$1, DW_AT_TI_symbol_name("PBSEL_L")
      17                    .dwattr $C$DW$1, DW_AT_type(*$C$DW$T$34)
      18                    .dwattr $C$DW$1, DW_AT_declaration
      19                    .dwattr $C$DW$1, DW_AT_external
      20                    .dwattr $C$DW$1, DW_AT_decl_file("C:\ti\ccs1010\ccs\ccs_base\msp430\include\msp430f5529.h")
      21                    .dwattr $C$DW$1, DW_AT_decl_line(0x629)
      22                    .dwattr $C$DW$1, DW_AT_decl_column(0x01)
      23            
      24            $C$DW$2 .dwtag  DW_TAG_variable
      25                    .dwattr $C$DW$2, DW_AT_name("SFRIE1")
      26                    .dwattr $C$DW$2, DW_AT_TI_symbol_name("SFRIE1")
      27                    .dwattr $C$DW$2, DW_AT_type(*$C$DW$T$65)
      28                    .dwattr $C$DW$2, DW_AT_declaration
      29                    .dwattr $C$DW$2, DW_AT_external
      30                    .dwattr $C$DW$2, DW_AT_decl_file("C:\ti\ccs1010\ccs\ccs_base\msp430\include\msp430f5529.h")
      31                    .dwattr $C$DW$2, DW_AT_decl_line(0x98d)
      32                    .dwattr $C$DW$2, DW_AT_decl_column(0x01)
      33            
      34            $C$DW$3 .dwtag  DW_TAG_variable
      35                    .dwattr $C$DW$3, DW_AT_name("UCA0CTLW0_L")
      36                    .dwattr $C$DW$3, DW_AT_TI_symbol_name("UCA0CTLW0_L")
      37                    .dwattr $C$DW$3, DW_AT_type(*$C$DW$T$34)
      38                    .dwattr $C$DW$3, DW_AT_declaration
      39                    .dwattr $C$DW$3, DW_AT_external
      40                    .dwattr $C$DW$3, DW_AT_decl_file("C:\ti\ccs1010\ccs\ccs_base\msp430\include\msp430f5529.h")
      41                    .dwattr $C$DW$3, DW_AT_decl_line(0x10c6)
      42                    .dwattr $C$DW$3, DW_AT_decl_column(0x01)
      43            
      44            $C$DW$4 .dwtag  DW_TAG_variable
      45                    .dwattr $C$DW$4, DW_AT_name("UCA0CTLW0_H")
      46                    .dwattr $C$DW$4, DW_AT_TI_symbol_name("UCA0CTLW0_H")
      47                    .dwattr $C$DW$4, DW_AT_type(*$C$DW$T$34)
      48                    .dwattr $C$DW$4, DW_AT_declaration
      49                    .dwattr $C$DW$4, DW_AT_external
      50                    .dwattr $C$DW$4, DW_AT_decl_file("C:\ti\ccs1010\ccs\ccs_base\msp430\include\msp430f5529.h")
      51                    .dwattr $C$DW$4, DW_AT_decl_line(0x10c7)
      52                    .dwattr $C$DW$4, DW_AT_decl_column(0x01)
      53            
      54            $C$DW$5 .dwtag  DW_TAG_variable
MSP430 Assembler PC v20.2.2 Fri Oct 30 22:03:02 2020

Copyright (c) 2003-2018 Texas Instruments Incorporated
C:\Users\tyler\AppData\Local\Temp\{AE531C7E-F4C8-4E89-9BF9-24F4C1D7A278} PAGE    2

      55                    .dwattr $C$DW$5, DW_AT_name("UCA0BRW_L")
      56                    .dwattr $C$DW$5, DW_AT_TI_symbol_name("UCA0BRW_L")
      57                    .dwattr $C$DW$5, DW_AT_type(*$C$DW$T$34)
      58                    .dwattr $C$DW$5, DW_AT_declaration
      59                    .dwattr $C$DW$5, DW_AT_external
      60                    .dwattr $C$DW$5, DW_AT_decl_file("C:\ti\ccs1010\ccs\ccs_base\msp430\include\msp430f5529.h")
      61                    .dwattr $C$DW$5, DW_AT_decl_line(0x10cb)
      62                    .dwattr $C$DW$5, DW_AT_decl_column(0x01)
      63            
      64            $C$DW$6 .dwtag  DW_TAG_variable
      65                    .dwattr $C$DW$6, DW_AT_name("UCA0BRW_H")
      66                    .dwattr $C$DW$6, DW_AT_TI_symbol_name("UCA0BRW_H")
      67                    .dwattr $C$DW$6, DW_AT_type(*$C$DW$T$34)
      68                    .dwattr $C$DW$6, DW_AT_declaration
      69                    .dwattr $C$DW$6, DW_AT_external
      70                    .dwattr $C$DW$6, DW_AT_decl_file("C:\ti\ccs1010\ccs\ccs_base\msp430\include\msp430f5529.h")
      71                    .dwattr $C$DW$6, DW_AT_decl_line(0x10cc)
      72                    .dwattr $C$DW$6, DW_AT_decl_column(0x01)
      73            
      74            $C$DW$7 .dwtag  DW_TAG_variable
      75                    .dwattr $C$DW$7, DW_AT_name("UCA0MCTL")
      76                    .dwattr $C$DW$7, DW_AT_TI_symbol_name("UCA0MCTL")
      77                    .dwattr $C$DW$7, DW_AT_type(*$C$DW$T$34)
      78                    .dwattr $C$DW$7, DW_AT_declaration
      79                    .dwattr $C$DW$7, DW_AT_external
      80                    .dwattr $C$DW$7, DW_AT_decl_file("C:\ti\ccs1010\ccs\ccs_base\msp430\include\msp430f5529.h")
      81                    .dwattr $C$DW$7, DW_AT_decl_line(0x10cf)
      82                    .dwattr $C$DW$7, DW_AT_decl_column(0x01)
      83            
      84            $C$DW$8 .dwtag  DW_TAG_variable
      85                    .dwattr $C$DW$8, DW_AT_name("UCA0RXBUF")
      86                    .dwattr $C$DW$8, DW_AT_TI_symbol_name("UCA0RXBUF")
      87                    .dwattr $C$DW$8, DW_AT_type(*$C$DW$T$34)
      88                    .dwattr $C$DW$8, DW_AT_declaration
      89                    .dwattr $C$DW$8, DW_AT_external
      90                    .dwattr $C$DW$8, DW_AT_decl_file("C:\ti\ccs1010\ccs\ccs_base\msp430\include\msp430f5529.h")
      91                    .dwattr $C$DW$8, DW_AT_decl_line(0x10d1)
      92                    .dwattr $C$DW$8, DW_AT_decl_column(0x01)
      93            
      94            $C$DW$9 .dwtag  DW_TAG_variable
      95                    .dwattr $C$DW$9, DW_AT_name("UCA0TXBUF")
      96                    .dwattr $C$DW$9, DW_AT_TI_symbol_name("UCA0TXBUF")
      97                    .dwattr $C$DW$9, DW_AT_type(*$C$DW$T$34)
      98                    .dwattr $C$DW$9, DW_AT_declaration
      99                    .dwattr $C$DW$9, DW_AT_external
     100                    .dwattr $C$DW$9, DW_AT_decl_file("C:\ti\ccs1010\ccs\ccs_base\msp430\include\msp430f5529.h")
     101                    .dwattr $C$DW$9, DW_AT_decl_line(0x10d2)
     102                    .dwattr $C$DW$9, DW_AT_decl_column(0x01)
     103            
     104            $C$DW$10        .dwtag  DW_TAG_variable
     105                    .dwattr $C$DW$10, DW_AT_name("UCA0ICTL_H")
     106                    .dwattr $C$DW$10, DW_AT_TI_symbol_name("UCA0ICTL_H")
     107                    .dwattr $C$DW$10, DW_AT_type(*$C$DW$T$34)
     108                    .dwattr $C$DW$10, DW_AT_declaration
     109                    .dwattr $C$DW$10, DW_AT_external
MSP430 Assembler PC v20.2.2 Fri Oct 30 22:03:02 2020

Copyright (c) 2003-2018 Texas Instruments Incorporated
C:\Users\tyler\AppData\Local\Temp\{AE531C7E-F4C8-4E89-9BF9-24F4C1D7A278} PAGE    3

     110                    .dwattr $C$DW$10, DW_AT_decl_file("C:\ti\ccs1010\ccs\ccs_base\msp430\include\msp430f5529.h")
     111                    .dwattr $C$DW$10, DW_AT_decl_line(0x10db)
     112                    .dwattr $C$DW$10, DW_AT_decl_column(0x01)
     113            
     114            $C$DW$11        .dwtag  DW_TAG_variable
     115                    .dwattr $C$DW$11, DW_AT_name("WDTCTL")
     116                    .dwattr $C$DW$11, DW_AT_TI_symbol_name("WDTCTL")
     117                    .dwattr $C$DW$11, DW_AT_type(*$C$DW$T$65)
     118                    .dwattr $C$DW$11, DW_AT_declaration
     119                    .dwattr $C$DW$11, DW_AT_external
     120                    .dwattr $C$DW$11, DW_AT_decl_file("C:\ti\ccs1010\ccs\ccs_base\msp430\include\msp430f5529.h")
     121                    .dwattr $C$DW$11, DW_AT_decl_line(0x1232)
     122                    .dwattr $C$DW$11, DW_AT_decl_column(0x01)
     123            
     124                    .global EnterUser
     125 000000               .sect   ".data:EnterUser", RW
     126                    .align  2
     127                    .elfsym EnterUser,SYM_SIZE(18)
     128 000000       EnterUser:
     129 000000 0045          .bits           0x45,8
     130                                    ; EnterUser[0] @ 0
     131 000000 6E45          .bits           0x6e,8
     132                                    ; EnterUser[1] @ 8
     133 000002 0074          .bits           0x74,8
     134                                    ; EnterUser[2] @ 16
     135 000002 6574          .bits           0x65,8
     136                                    ; EnterUser[3] @ 24
     137 000004 0072          .bits           0x72,8
     138                                    ; EnterUser[4] @ 32
     139 000004 2072          .bits           0x20,8
     140                                    ; EnterUser[5] @ 40
     141 000006 0061          .bits           0x61,8
     142                                    ; EnterUser[6] @ 48
     143 000006 2061          .bits           0x20,8
     144                                    ; EnterUser[7] @ 56
     145 000008 0055          .bits           0x55,8
     146                                    ; EnterUser[8] @ 64
     147 000008 7355          .bits           0x73,8
     148                                    ; EnterUser[9] @ 72
     149 00000a 0065          .bits           0x65,8
     150                                    ; EnterUser[10] @ 80
     151 00000a 7265          .bits           0x72,8
     152                                    ; EnterUser[11] @ 88
     153 00000c 006E          .bits           0x6e,8
     154                                    ; EnterUser[12] @ 96
     155 00000c 616E          .bits           0x61,8
     156                                    ; EnterUser[13] @ 104
     157 00000e 006D          .bits           0x6d,8
     158                                    ; EnterUser[14] @ 112
     159 00000e 656D          .bits           0x65,8
     160                                    ; EnterUser[15] @ 120
     161 000010 003A          .bits           0x3a,8
     162                                    ; EnterUser[16] @ 128
     163 000010 003A          .bits           0,8
     164                                    ; EnterUser[17] @ 136
MSP430 Assembler PC v20.2.2 Fri Oct 30 22:03:02 2020

Copyright (c) 2003-2018 Texas Instruments Incorporated
C:\Users\tyler\AppData\Local\Temp\{AE531C7E-F4C8-4E89-9BF9-24F4C1D7A278} PAGE    4

     165            
     166            $C$DW$12        .dwtag  DW_TAG_variable
     167                    .dwattr $C$DW$12, DW_AT_name("EnterUser")
     168                    .dwattr $C$DW$12, DW_AT_TI_symbol_name("EnterUser")
     169                    .dwattr $C$DW$12, DW_AT_location[DW_OP_addr EnterUser]
     170                    .dwattr $C$DW$12, DW_AT_type(*$C$DW$T$148)
     171                    .dwattr $C$DW$12, DW_AT_external
     172                    .dwattr $C$DW$12, DW_AT_decl_file("../main.c")
     173                    .dwattr $C$DW$12, DW_AT_decl_line(0x05)
     174                    .dwattr $C$DW$12, DW_AT_decl_column(0x06)
     175            
     176                    .global EnterPass
     177 000000               .sect   ".data:EnterPass", RW
     178                    .align  2
     179                    .elfsym EnterPass,SYM_SIZE(18)
     180 000000       EnterPass:
     181 000000 0045          .bits           0x45,8
     182                                    ; EnterPass[0] @ 0
     183 000000 6E45          .bits           0x6e,8
     184                                    ; EnterPass[1] @ 8
     185 000002 0074          .bits           0x74,8
     186                                    ; EnterPass[2] @ 16
     187 000002 6574          .bits           0x65,8
     188                                    ; EnterPass[3] @ 24
     189 000004 0072          .bits           0x72,8
     190                                    ; EnterPass[4] @ 32
     191 000004 2072          .bits           0x20,8
     192                                    ; EnterPass[5] @ 40
     193 000006 0061          .bits           0x61,8
     194                                    ; EnterPass[6] @ 48
     195 000006 2061          .bits           0x20,8
     196                                    ; EnterPass[7] @ 56
     197 000008 0050          .bits           0x50,8
     198                                    ; EnterPass[8] @ 64
     199 000008 6150          .bits           0x61,8
     200                                    ; EnterPass[9] @ 72
     201 00000a 0073          .bits           0x73,8
     202                                    ; EnterPass[10] @ 80
     203 00000a 7373          .bits           0x73,8
     204                                    ; EnterPass[11] @ 88
     205 00000c 0077          .bits           0x77,8
     206                                    ; EnterPass[12] @ 96
     207 00000c 6F77          .bits           0x6f,8
     208                                    ; EnterPass[13] @ 104
     209 00000e 0072          .bits           0x72,8
     210                                    ; EnterPass[14] @ 112
     211 00000e 6472          .bits           0x64,8
     212                                    ; EnterPass[15] @ 120
     213 000010 003A          .bits           0x3a,8
     214                                    ; EnterPass[16] @ 128
     215 000010 003A          .bits           0,8
     216                                    ; EnterPass[17] @ 136
     217            
     218            $C$DW$13        .dwtag  DW_TAG_variable
     219                    .dwattr $C$DW$13, DW_AT_name("EnterPass")
MSP430 Assembler PC v20.2.2 Fri Oct 30 22:03:02 2020

Copyright (c) 2003-2018 Texas Instruments Incorporated
C:\Users\tyler\AppData\Local\Temp\{AE531C7E-F4C8-4E89-9BF9-24F4C1D7A278} PAGE    5

     220                    .dwattr $C$DW$13, DW_AT_TI_symbol_name("EnterPass")
     221                    .dwattr $C$DW$13, DW_AT_location[DW_OP_addr EnterPass]
     222                    .dwattr $C$DW$13, DW_AT_type(*$C$DW$T$148)
     223                    .dwattr $C$DW$13, DW_AT_external
     224                    .dwattr $C$DW$13, DW_AT_decl_file("../main.c")
     225                    .dwattr $C$DW$13, DW_AT_decl_line(0x06)
     226                    .dwattr $C$DW$13, DW_AT_decl_column(0x06)
     227            
     228                    .global TestUserName
     229                    .common TestUserName,50,2
     230            $C$DW$14        .dwtag  DW_TAG_variable
     231                    .dwattr $C$DW$14, DW_AT_name("TestUserName")
     232                    .dwattr $C$DW$14, DW_AT_TI_symbol_name("TestUserName")
     233                    .dwattr $C$DW$14, DW_AT_location[DW_OP_addr TestUserName]
     234                    .dwattr $C$DW$14, DW_AT_type(*$C$DW$T$149)
     235                    .dwattr $C$DW$14, DW_AT_external
     236                    .dwattr $C$DW$14, DW_AT_decl_file("../main.c")
     237                    .dwattr $C$DW$14, DW_AT_decl_line(0x07)
     238                    .dwattr $C$DW$14, DW_AT_decl_column(0x06)
     239            
     240                    .global TestPassWord
     241                    .common TestPassWord,50,2
     242            $C$DW$15        .dwtag  DW_TAG_variable
     243                    .dwattr $C$DW$15, DW_AT_name("TestPassWord")
     244                    .dwattr $C$DW$15, DW_AT_TI_symbol_name("TestPassWord")
     245                    .dwattr $C$DW$15, DW_AT_location[DW_OP_addr TestPassWord]
     246                    .dwattr $C$DW$15, DW_AT_type(*$C$DW$T$149)
     247                    .dwattr $C$DW$15, DW_AT_external
     248                    .dwattr $C$DW$15, DW_AT_decl_file("../main.c")
     249                    .dwattr $C$DW$15, DW_AT_decl_line(0x08)
     250                    .dwattr $C$DW$15, DW_AT_decl_column(0x06)
     251            
     252                    .global OneUserName
     253 000000               .sect   ".data:OneUserName", RW
     254                    .align  2
     255                    .elfsym OneUserName,SYM_SIZE(50)
     256 000000       OneUserName:
     257 000000 0074          .bits           0x74,8
     258                                    ; OneUserName[0] @ 0
     259 000000 6A74          .bits           0x6a,8
     260                                    ; OneUserName[1] @ 8
     261 000002 0070          .bits           0x70,8
     262                                    ; OneUserName[2] @ 16
     263 000002 3070          .bits           0x30,8
     264                                    ; OneUserName[3] @ 24
     265 000004 0030          .bits           0x30,8
     266                                    ; OneUserName[4] @ 32
     267 000004 3130          .bits           0x31,8
     268                                    ; OneUserName[5] @ 40
     269 000006 0038          .bits           0x38,8
     270                                    ; OneUserName[6] @ 48
     271 000006 2038          .bits           0x20,8
     272                                    ; OneUserName[7] @ 56
     273 000008 0020          .bits           0x20,8
     274                                    ; OneUserName[8] @ 64
MSP430 Assembler PC v20.2.2 Fri Oct 30 22:03:02 2020

Copyright (c) 2003-2018 Texas Instruments Incorporated
C:\Users\tyler\AppData\Local\Temp\{AE531C7E-F4C8-4E89-9BF9-24F4C1D7A278} PAGE    6

     275 000008 2020          .bits           0x20,8
     276                                    ; OneUserName[9] @ 72
     277 00000a 0020          .bits           0x20,8
     278                                    ; OneUserName[10] @ 80
     279 00000a 2020          .bits           0x20,8
     280                                    ; OneUserName[11] @ 88
     281 00000c 0020          .bits           0x20,8
     282                                    ; OneUserName[12] @ 96
     283 00000c 2020          .bits           0x20,8
     284                                    ; OneUserName[13] @ 104
     285 00000e 0020          .bits           0x20,8
     286                                    ; OneUserName[14] @ 112
     287 00000e 2020          .bits           0x20,8
     288                                    ; OneUserName[15] @ 120
     289 000010 0020          .bits           0x20,8
     290                                    ; OneUserName[16] @ 128
     291 000010 2020          .bits           0x20,8
     292                                    ; OneUserName[17] @ 136
     293 000012 0020          .bits           0x20,8
     294                                    ; OneUserName[18] @ 144
     295 000012 2020          .bits           0x20,8
     296                                    ; OneUserName[19] @ 152
     297 000014 0020          .bits           0x20,8
     298                                    ; OneUserName[20] @ 160
     299 000014 2020          .bits           0x20,8
     300                                    ; OneUserName[21] @ 168
     301 000016 0020          .bits           0x20,8
     302                                    ; OneUserName[22] @ 176
     303 000016 2020          .bits           0x20,8
     304                                    ; OneUserName[23] @ 184
     305 000018 0020          .bits           0x20,8
     306                                    ; OneUserName[24] @ 192
     307 000018 2020          .bits           0x20,8
     308                                    ; OneUserName[25] @ 200
     309 00001a 0020          .bits           0x20,8
     310                                    ; OneUserName[26] @ 208
     311 00001a 2020          .bits           0x20,8
     312                                    ; OneUserName[27] @ 216
     313 00001c 0020          .bits           0x20,8
     314                                    ; OneUserName[28] @ 224
     315 00001c 2020          .bits           0x20,8
     316                                    ; OneUserName[29] @ 232
     317 00001e 0020          .bits           0x20,8
     318                                    ; OneUserName[30] @ 240
     319 00001e 2020          .bits           0x20,8
     320                                    ; OneUserName[31] @ 248
     321 000020 0020          .bits           0x20,8
     322                                    ; OneUserName[32] @ 256
     323 000020 2020          .bits           0x20,8
     324                                    ; OneUserName[33] @ 264
     325 000022 0020          .bits           0x20,8
     326                                    ; OneUserName[34] @ 272
     327 000022 2020          .bits           0x20,8
     328                                    ; OneUserName[35] @ 280
     329 000024 0020          .bits           0x20,8
MSP430 Assembler PC v20.2.2 Fri Oct 30 22:03:02 2020

Copyright (c) 2003-2018 Texas Instruments Incorporated
C:\Users\tyler\AppData\Local\Temp\{AE531C7E-F4C8-4E89-9BF9-24F4C1D7A278} PAGE    7

     330                                    ; OneUserName[36] @ 288
     331 000024 2020          .bits           0x20,8
     332                                    ; OneUserName[37] @ 296
     333 000026 0020          .bits           0x20,8
     334                                    ; OneUserName[38] @ 304
     335 000026 2020          .bits           0x20,8
     336                                    ; OneUserName[39] @ 312
     337 000028 0020          .bits           0x20,8
     338                                    ; OneUserName[40] @ 320
     339 000028 2020          .bits           0x20,8
     340                                    ; OneUserName[41] @ 328
     341 00002a 0020          .bits           0x20,8
     342                                    ; OneUserName[42] @ 336
     343 00002a 2020          .bits           0x20,8
     344                                    ; OneUserName[43] @ 344
     345 00002c 0020          .bits           0x20,8
     346                                    ; OneUserName[44] @ 352
     347 00002c 2020          .bits           0x20,8
     348                                    ; OneUserName[45] @ 360
     349 00002e 0020          .bits           0x20,8
     350                                    ; OneUserName[46] @ 368
     351 00002e 2020          .bits           0x20,8
     352                                    ; OneUserName[47] @ 376
     353 000030 0020          .bits           0x20,8
     354                                    ; OneUserName[48] @ 384
     355 000030 2020          .bits           0x20,8
     356                                    ; OneUserName[49] @ 392
     357            
     358            $C$DW$16        .dwtag  DW_TAG_variable
     359                    .dwattr $C$DW$16, DW_AT_name("OneUserName")
     360                    .dwattr $C$DW$16, DW_AT_TI_symbol_name("OneUserName")
     361                    .dwattr $C$DW$16, DW_AT_location[DW_OP_addr OneUserName]
     362                    .dwattr $C$DW$16, DW_AT_type(*$C$DW$T$149)
     363                    .dwattr $C$DW$16, DW_AT_external
     364                    .dwattr $C$DW$16, DW_AT_decl_file("../main.c")
     365                    .dwattr $C$DW$16, DW_AT_decl_line(0x09)
     366                    .dwattr $C$DW$16, DW_AT_decl_column(0x06)
     367            
     368                    .global OnePassWord
     369 000000               .sect   ".data:OnePassWord", RW
     370                    .align  2
     371                    .elfsym OnePassWord,SYM_SIZE(50)
     372 000000       OnePassWord:
     373 000000 0049          .bits           0x49,8
     374                                    ; OnePassWord[0] @ 0
     375 000000 4C49          .bits           0x4c,8
     376                                    ; OnePassWord[1] @ 8
     377 000002 006F          .bits           0x6f,8
     378                                    ; OnePassWord[2] @ 16
     379 000002 766F          .bits           0x76,8
     380                                    ; OnePassWord[3] @ 24
     381 000004 0065          .bits           0x65,8
     382                                    ; OnePassWord[4] @ 32
     383 000004 4365          .bits           0x43,8
     384                                    ; OnePassWord[5] @ 40
MSP430 Assembler PC v20.2.2 Fri Oct 30 22:03:02 2020

Copyright (c) 2003-2018 Texas Instruments Incorporated
C:\Users\tyler\AppData\Local\Temp\{AE531C7E-F4C8-4E89-9BF9-24F4C1D7A278} PAGE    8

     385 000006 0050          .bits           0x50,8
     386                                    ; OnePassWord[6] @ 48
     387 000006 4550          .bits           0x45,8
     388                                    ; OnePassWord[7] @ 56
     389 000008 0033          .bits           0x33,8
     390                                    ; OnePassWord[8] @ 64
     391 000008 3233          .bits           0x32,8
     392                                    ; OnePassWord[9] @ 72
     393 00000a 0035          .bits           0x35,8
     394                                    ; OnePassWord[10] @ 80
     395 00000a 2035          .bits           0x20,8
     396                                    ; OnePassWord[11] @ 88
     397 00000c 0020          .bits           0x20,8
     398                                    ; OnePassWord[12] @ 96
     399 00000c 2020          .bits           0x20,8
     400                                    ; OnePassWord[13] @ 104
     401 00000e 0020          .bits           0x20,8
     402                                    ; OnePassWord[14] @ 112
     403 00000e 2020          .bits           0x20,8
     404                                    ; OnePassWord[15] @ 120
     405 000010 0020          .bits           0x20,8
     406                                    ; OnePassWord[16] @ 128
     407 000010 2020          .bits           0x20,8
     408                                    ; OnePassWord[17] @ 136
     409 000012 0020          .bits           0x20,8
     410                                    ; OnePassWord[18] @ 144
     411 000012 2020          .bits           0x20,8
     412                                    ; OnePassWord[19] @ 152
     413 000014 0020          .bits           0x20,8
     414                                    ; OnePassWord[20] @ 160
     415 000014 2020          .bits           0x20,8
     416                                    ; OnePassWord[21] @ 168
     417 000016 0020          .bits           0x20,8
     418                                    ; OnePassWord[22] @ 176
     419 000016 2020          .bits           0x20,8
     420                                    ; OnePassWord[23] @ 184
     421 000018 0020          .bits           0x20,8
     422                                    ; OnePassWord[24] @ 192
     423 000018 2020          .bits           0x20,8
     424                                    ; OnePassWord[25] @ 200
     425 00001a 0020          .bits           0x20,8
     426                                    ; OnePassWord[26] @ 208
     427 00001a 2020          .bits           0x20,8
     428                                    ; OnePassWord[27] @ 216
     429 00001c 0020          .bits           0x20,8
     430                                    ; OnePassWord[28] @ 224
     431 00001c 2020          .bits           0x20,8
     432                                    ; OnePassWord[29] @ 232
     433 00001e 0020          .bits           0x20,8
     434                                    ; OnePassWord[30] @ 240
     435 00001e 2020          .bits           0x20,8
     436                                    ; OnePassWord[31] @ 248
     437 000020 0020          .bits           0x20,8
     438                                    ; OnePassWord[32] @ 256
     439 000020 2020          .bits           0x20,8
MSP430 Assembler PC v20.2.2 Fri Oct 30 22:03:02 2020

Copyright (c) 2003-2018 Texas Instruments Incorporated
C:\Users\tyler\AppData\Local\Temp\{AE531C7E-F4C8-4E89-9BF9-24F4C1D7A278} PAGE    9

     440                                    ; OnePassWord[33] @ 264
     441 000022 0020          .bits           0x20,8
     442                                    ; OnePassWord[34] @ 272
     443 000022 2020          .bits           0x20,8
     444                                    ; OnePassWord[35] @ 280
     445 000024 0020          .bits           0x20,8
     446                                    ; OnePassWord[36] @ 288
     447 000024 2020          .bits           0x20,8
     448                                    ; OnePassWord[37] @ 296
     449 000026 0020          .bits           0x20,8
     450                                    ; OnePassWord[38] @ 304
     451 000026 2020          .bits           0x20,8
     452                                    ; OnePassWord[39] @ 312
     453 000028 0020          .bits           0x20,8
     454                                    ; OnePassWord[40] @ 320
     455 000028 2020          .bits           0x20,8
     456                                    ; OnePassWord[41] @ 328
     457 00002a 0020          .bits           0x20,8
     458                                    ; OnePassWord[42] @ 336
     459 00002a 2020          .bits           0x20,8
     460                                    ; OnePassWord[43] @ 344
     461 00002c 0020          .bits           0x20,8
     462                                    ; OnePassWord[44] @ 352
     463 00002c 2020          .bits           0x20,8
     464                                    ; OnePassWord[45] @ 360
     465 00002e 0020          .bits           0x20,8
     466                                    ; OnePassWord[46] @ 368
     467 00002e 2020          .bits           0x20,8
     468                                    ; OnePassWord[47] @ 376
     469 000030 0020          .bits           0x20,8
     470                                    ; OnePassWord[48] @ 384
     471 000030 2020          .bits           0x20,8
     472                                    ; OnePassWord[49] @ 392
     473            
     474            $C$DW$17        .dwtag  DW_TAG_variable
     475                    .dwattr $C$DW$17, DW_AT_name("OnePassWord")
     476                    .dwattr $C$DW$17, DW_AT_TI_symbol_name("OnePassWord")
     477                    .dwattr $C$DW$17, DW_AT_location[DW_OP_addr OnePassWord]
     478                    .dwattr $C$DW$17, DW_AT_type(*$C$DW$T$149)
     479                    .dwattr $C$DW$17, DW_AT_external
     480                    .dwattr $C$DW$17, DW_AT_decl_file("../main.c")
     481                    .dwattr $C$DW$17, DW_AT_decl_line(0x0a)
     482                    .dwattr $C$DW$17, DW_AT_decl_column(0x06)
     483            
     484                    .global TwoUserName
     485 000000               .sect   ".data:TwoUserName", RW
     486                    .align  2
     487                    .elfsym TwoUserName,SYM_SIZE(50)
     488 000000       TwoUserName:
     489 000000 006E          .bits           0x6e,8
     490                                    ; TwoUserName[0] @ 0
     491 000000 616E          .bits           0x61,8
     492                                    ; TwoUserName[1] @ 8
     493 000002 0065          .bits           0x65,8
     494                                    ; TwoUserName[2] @ 16
MSP430 Assembler PC v20.2.2 Fri Oct 30 22:03:02 2020

Copyright (c) 2003-2018 Texas Instruments Incorporated
C:\Users\tyler\AppData\Local\Temp\{AE531C7E-F4C8-4E89-9BF9-24F4C1D7A278} PAGE   10

     495 000002 3065          .bits           0x30,8
     496                                    ; TwoUserName[3] @ 24
     497 000004 0030          .bits           0x30,8
     498                                    ; TwoUserName[4] @ 32
     499 000004 3030          .bits           0x30,8
     500                                    ; TwoUserName[5] @ 40
     501 000006 0035          .bits           0x35,8
     502                                    ; TwoUserName[6] @ 48
     503 000006 2035          .bits           0x20,8
     504                                    ; TwoUserName[7] @ 56
     505 000008 0020          .bits           0x20,8
     506                                    ; TwoUserName[8] @ 64
     507 000008 2020          .bits           0x20,8
     508                                    ; TwoUserName[9] @ 72
     509 00000a 0020          .bits           0x20,8
     510                                    ; TwoUserName[10] @ 80
     511 00000a 2020          .bits           0x20,8
     512                                    ; TwoUserName[11] @ 88
     513 00000c 0020          .bits           0x20,8
     514                                    ; TwoUserName[12] @ 96
     515 00000c 2020          .bits           0x20,8
     516                                    ; TwoUserName[13] @ 104
     517 00000e 0020          .bits           0x20,8
     518                                    ; TwoUserName[14] @ 112
     519 00000e 2020          .bits           0x20,8
     520                                    ; TwoUserName[15] @ 120
     521 000010 0020          .bits           0x20,8
     522                                    ; TwoUserName[16] @ 128
     523 000010 2020          .bits           0x20,8
     524                                    ; TwoUserName[17] @ 136
     525 000012 0020          .bits           0x20,8
     526                                    ; TwoUserName[18] @ 144
     527 000012 2020          .bits           0x20,8
     528                                    ; TwoUserName[19] @ 152
     529 000014 0020          .bits           0x20,8
     530                                    ; TwoUserName[20] @ 160
     531 000014 2020          .bits           0x20,8
     532                                    ; TwoUserName[21] @ 168
     533 000016 0020          .bits           0x20,8
     534                                    ; TwoUserName[22] @ 176
     535 000016 2020          .bits           0x20,8
     536                                    ; TwoUserName[23] @ 184
     537 000018 0020          .bits           0x20,8
     538                                    ; TwoUserName[24] @ 192
     539 000018 2020          .bits           0x20,8
     540                                    ; TwoUserName[25] @ 200
     541 00001a 0020          .bits           0x20,8
     542                                    ; TwoUserName[26] @ 208
     543 00001a 2020          .bits           0x20,8
     544                                    ; TwoUserName[27] @ 216
     545 00001c 0020          .bits           0x20,8
     546                                    ; TwoUserName[28] @ 224
     547 00001c 2020          .bits           0x20,8
     548                                    ; TwoUserName[29] @ 232
     549 00001e 0020          .bits           0x20,8
MSP430 Assembler PC v20.2.2 Fri Oct 30 22:03:02 2020

Copyright (c) 2003-2018 Texas Instruments Incorporated
C:\Users\tyler\AppData\Local\Temp\{AE531C7E-F4C8-4E89-9BF9-24F4C1D7A278} PAGE   11

     550                                    ; TwoUserName[30] @ 240
     551 00001e 2020          .bits           0x20,8
     552                                    ; TwoUserName[31] @ 248
     553 000020 0020          .bits           0x20,8
     554                                    ; TwoUserName[32] @ 256
     555 000020 2020          .bits           0x20,8
     556                                    ; TwoUserName[33] @ 264
     557 000022 0020          .bits           0x20,8
     558                                    ; TwoUserName[34] @ 272
     559 000022 2020          .bits           0x20,8
     560                                    ; TwoUserName[35] @ 280
     561 000024 0020          .bits           0x20,8
     562                                    ; TwoUserName[36] @ 288
     563 000024 2020          .bits           0x20,8
     564                                    ; TwoUserName[37] @ 296
     565 000026 0020          .bits           0x20,8
     566                                    ; TwoUserName[38] @ 304
     567 000026 2020          .bits           0x20,8
     568                                    ; TwoUserName[39] @ 312
     569 000028 0020          .bits           0x20,8
     570                                    ; TwoUserName[40] @ 320
     571 000028 2020          .bits           0x20,8
     572                                    ; TwoUserName[41] @ 328
     573 00002a 0020          .bits           0x20,8
     574                                    ; TwoUserName[42] @ 336
     575 00002a 2020          .bits           0x20,8
     576                                    ; TwoUserName[43] @ 344
     577 00002c 0020          .bits           0x20,8
     578                                    ; TwoUserName[44] @ 352
     579 00002c 2020          .bits           0x20,8
     580                                    ; TwoUserName[45] @ 360
     581 00002e 0020          .bits           0x20,8
     582                                    ; TwoUserName[46] @ 368
     583 00002e 2020          .bits           0x20,8
     584                                    ; TwoUserName[47] @ 376
     585 000030 0020          .bits           0x20,8
     586                                    ; TwoUserName[48] @ 384
     587 000030 2020          .bits           0x20,8
     588                                    ; TwoUserName[49] @ 392
     589            
     590            $C$DW$18        .dwtag  DW_TAG_variable
     591                    .dwattr $C$DW$18, DW_AT_name("TwoUserName")
     592                    .dwattr $C$DW$18, DW_AT_TI_symbol_name("TwoUserName")
     593                    .dwattr $C$DW$18, DW_AT_location[DW_OP_addr TwoUserName]
     594                    .dwattr $C$DW$18, DW_AT_type(*$C$DW$T$149)
     595                    .dwattr $C$DW$18, DW_AT_external
     596                    .dwattr $C$DW$18, DW_AT_decl_file("../main.c")
     597                    .dwattr $C$DW$18, DW_AT_decl_line(0x0b)
     598                    .dwattr $C$DW$18, DW_AT_decl_column(0x06)
     599            
     600                    .global TwoPassWord
     601 000000               .sect   ".data:TwoPassWord", RW
     602                    .align  2
     603                    .elfsym TwoPassWord,SYM_SIZE(50)
     604 000000       TwoPassWord:
MSP430 Assembler PC v20.2.2 Fri Oct 30 22:03:02 2020

Copyright (c) 2003-2018 Texas Instruments Incorporated
C:\Users\tyler\AppData\Local\Temp\{AE531C7E-F4C8-4E89-9BF9-24F4C1D7A278} PAGE   12

     605 000000 004D          .bits           0x4d,8
     606                                    ; TwoPassWord[0] @ 0
     607 000000 534D          .bits           0x53,8
     608                                    ; TwoPassWord[1] @ 8
     609 000002 0050          .bits           0x50,8
     610                                    ; TwoPassWord[2] @ 16
     611 000002 3450          .bits           0x34,8
     612                                    ; TwoPassWord[3] @ 24
     613 000004 0033          .bits           0x33,8
     614                                    ; TwoPassWord[4] @ 32
     615 000004 3033          .bits           0x30,8
     616                                    ; TwoPassWord[5] @ 40
     617 000006 0049          .bits           0x49,8
     618                                    ; TwoPassWord[6] @ 48
     619 000006 7349          .bits           0x73,8
     620                                    ; TwoPassWord[7] @ 56
     621 000008 0043          .bits           0x43,8
     622                                    ; TwoPassWord[8] @ 64
     623 000008 6F43          .bits           0x6f,8
     624                                    ; TwoPassWord[9] @ 72
     625 00000a 006F          .bits           0x6f,8
     626                                    ; TwoPassWord[10] @ 80
     627 00000a 6C6F          .bits           0x6c,8
     628                                    ; TwoPassWord[11] @ 88
     629 00000c 0020          .bits           0x20,8
     630                                    ; TwoPassWord[12] @ 96
     631 00000c 2020          .bits           0x20,8
     632                                    ; TwoPassWord[13] @ 104
     633 00000e 0020          .bits           0x20,8
     634                                    ; TwoPassWord[14] @ 112
     635 00000e 2020          .bits           0x20,8
     636                                    ; TwoPassWord[15] @ 120
     637 000010 0020          .bits           0x20,8
     638                                    ; TwoPassWord[16] @ 128
     639 000010 2020          .bits           0x20,8
     640                                    ; TwoPassWord[17] @ 136
     641 000012 0020          .bits           0x20,8
     642                                    ; TwoPassWord[18] @ 144
     643 000012 2020          .bits           0x20,8
     644                                    ; TwoPassWord[19] @ 152
     645 000014 0020          .bits           0x20,8
     646                                    ; TwoPassWord[20] @ 160
     647 000014 2020          .bits           0x20,8
     648                                    ; TwoPassWord[21] @ 168
     649 000016 0020          .bits           0x20,8
     650                                    ; TwoPassWord[22] @ 176
     651 000016 2020          .bits           0x20,8
     652                                    ; TwoPassWord[23] @ 184
     653 000018 0020          .bits           0x20,8
     654                                    ; TwoPassWord[24] @ 192
     655 000018 2020          .bits           0x20,8
     656                                    ; TwoPassWord[25] @ 200
     657 00001a 0020          .bits           0x20,8
     658                                    ; TwoPassWord[26] @ 208
     659 00001a 2020          .bits           0x20,8
MSP430 Assembler PC v20.2.2 Fri Oct 30 22:03:02 2020

Copyright (c) 2003-2018 Texas Instruments Incorporated
C:\Users\tyler\AppData\Local\Temp\{AE531C7E-F4C8-4E89-9BF9-24F4C1D7A278} PAGE   13

     660                                    ; TwoPassWord[27] @ 216
     661 00001c 0020          .bits           0x20,8
     662                                    ; TwoPassWord[28] @ 224
     663 00001c 2020          .bits           0x20,8
     664                                    ; TwoPassWord[29] @ 232
     665 00001e 0020          .bits           0x20,8
     666                                    ; TwoPassWord[30] @ 240
     667 00001e 2020          .bits           0x20,8
     668                                    ; TwoPassWord[31] @ 248
     669 000020 0020          .bits           0x20,8
     670                                    ; TwoPassWord[32] @ 256
     671 000020 2020          .bits           0x20,8
     672                                    ; TwoPassWord[33] @ 264
     673 000022 0020          .bits           0x20,8
     674                                    ; TwoPassWord[34] @ 272
     675 000022 2020          .bits           0x20,8
     676                                    ; TwoPassWord[35] @ 280
     677 000024 0020          .bits           0x20,8
     678                                    ; TwoPassWord[36] @ 288
     679 000024 2020          .bits           0x20,8
     680                                    ; TwoPassWord[37] @ 296
     681 000026 0020          .bits           0x20,8
     682                                    ; TwoPassWord[38] @ 304
     683 000026 2020          .bits           0x20,8
     684                                    ; TwoPassWord[39] @ 312
     685 000028 0020          .bits           0x20,8
     686                                    ; TwoPassWord[40] @ 320
     687 000028 2020          .bits           0x20,8
     688                                    ; TwoPassWord[41] @ 328
     689 00002a 0020          .bits           0x20,8
     690                                    ; TwoPassWord[42] @ 336
     691 00002a 2020          .bits           0x20,8
     692                                    ; TwoPassWord[43] @ 344
     693 00002c 0020          .bits           0x20,8
     694                                    ; TwoPassWord[44] @ 352
     695 00002c 2020          .bits           0x20,8
     696                                    ; TwoPassWord[45] @ 360
     697 00002e 0020          .bits           0x20,8
     698                                    ; TwoPassWord[46] @ 368
     699 00002e 2020          .bits           0x20,8
     700                                    ; TwoPassWord[47] @ 376
     701 000030 0020          .bits           0x20,8
     702                                    ; TwoPassWord[48] @ 384
     703 000030 2020          .bits           0x20,8
     704                                    ; TwoPassWord[49] @ 392
     705            
     706            $C$DW$19        .dwtag  DW_TAG_variable
     707                    .dwattr $C$DW$19, DW_AT_name("TwoPassWord")
     708                    .dwattr $C$DW$19, DW_AT_TI_symbol_name("TwoPassWord")
     709                    .dwattr $C$DW$19, DW_AT_location[DW_OP_addr TwoPassWord]
     710                    .dwattr $C$DW$19, DW_AT_type(*$C$DW$T$149)
     711                    .dwattr $C$DW$19, DW_AT_external
     712                    .dwattr $C$DW$19, DW_AT_decl_file("../main.c")
     713                    .dwattr $C$DW$19, DW_AT_decl_line(0x0c)
     714                    .dwattr $C$DW$19, DW_AT_decl_column(0x06)
MSP430 Assembler PC v20.2.2 Fri Oct 30 22:03:02 2020

Copyright (c) 2003-2018 Texas Instruments Incorporated
C:\Users\tyler\AppData\Local\Temp\{AE531C7E-F4C8-4E89-9BF9-24F4C1D7A278} PAGE   14

     715            
     716                    .global CorrectPass
     717 000000               .sect   ".data:CorrectPass", RW
     718                    .align  2
     719                    .elfsym CorrectPass,SYM_SIZE(22)
     720 000000       CorrectPass:
     721 000000 0057          .bits           0x57,8
     722                                    ; CorrectPass[0] @ 0
     723 000000 6557          .bits           0x65,8
     724                                    ; CorrectPass[1] @ 8
     725 000002 006C          .bits           0x6c,8
     726                                    ; CorrectPass[2] @ 16
     727 000002 636C          .bits           0x63,8
     728                                    ; CorrectPass[3] @ 24
     729 000004 006F          .bits           0x6f,8
     730                                    ; CorrectPass[4] @ 32
     731 000004 6D6F          .bits           0x6d,8
     732                                    ; CorrectPass[5] @ 40
     733 000006 0065          .bits           0x65,8
     734                                    ; CorrectPass[6] @ 48
     735 000006 2065          .bits           0x20,8
     736                                    ; CorrectPass[7] @ 56
     737 000008 0074          .bits           0x74,8
     738                                    ; CorrectPass[8] @ 64
     739 000008 6F74          .bits           0x6f,8
     740                                    ; CorrectPass[9] @ 72
     741 00000a 0020          .bits           0x20,8
     742                                    ; CorrectPass[10] @ 80
     743 00000a 4320          .bits           0x43,8
     744                                    ; CorrectPass[11] @ 88
     745 00000c 0050          .bits           0x50,8
     746                                    ; CorrectPass[12] @ 96
     747 00000c 4550          .bits           0x45,8
     748                                    ; CorrectPass[13] @ 104
     749 00000e 0020          .bits           0x20,8
     750                                    ; CorrectPass[14] @ 112
     751 00000e 3320          .bits           0x33,8
     752                                    ; CorrectPass[15] @ 120
     753 000010 0032          .bits           0x32,8
     754                                    ; CorrectPass[16] @ 128
     755 000010 3532          .bits           0x35,8
     756                                    ; CorrectPass[17] @ 136
     757 000012 0021          .bits           0x21,8
     758                                    ; CorrectPass[18] @ 144
     759 000012 2121          .bits           0x21,8
     760                                    ; CorrectPass[19] @ 152
     761 000014 0021          .bits           0x21,8
     762                                    ; CorrectPass[20] @ 160
     763 000014 0021          .bits           0,8
     764                                    ; CorrectPass[21] @ 168
     765            
     766            $C$DW$20        .dwtag  DW_TAG_variable
     767                    .dwattr $C$DW$20, DW_AT_name("CorrectPass")
     768                    .dwattr $C$DW$20, DW_AT_TI_symbol_name("CorrectPass")
     769                    .dwattr $C$DW$20, DW_AT_location[DW_OP_addr CorrectPass]
MSP430 Assembler PC v20.2.2 Fri Oct 30 22:03:02 2020

Copyright (c) 2003-2018 Texas Instruments Incorporated
C:\Users\tyler\AppData\Local\Temp\{AE531C7E-F4C8-4E89-9BF9-24F4C1D7A278} PAGE   15

     770                    .dwattr $C$DW$20, DW_AT_type(*$C$DW$T$150)
     771                    .dwattr $C$DW$20, DW_AT_external
     772                    .dwattr $C$DW$20, DW_AT_decl_file("../main.c")
     773                    .dwattr $C$DW$20, DW_AT_decl_line(0x0d)
     774                    .dwattr $C$DW$20, DW_AT_decl_column(0x06)
     775            
     776                    .global IncorrectPass
     777 000000               .sect   ".data:IncorrectPass", RW
     778                    .align  2
     779                    .elfsym IncorrectPass,SYM_SIZE(34)
     780 000000       IncorrectPass:
     781 000000 0049          .bits           0x49,8
     782                                    ; IncorrectPass[0] @ 0
     783 000000 6E49          .bits           0x6e,8
     784                                    ; IncorrectPass[1] @ 8
     785 000002 0063          .bits           0x63,8
     786                                    ; IncorrectPass[2] @ 16
     787 000002 6F63          .bits           0x6f,8
     788                                    ; IncorrectPass[3] @ 24
     789 000004 0072          .bits           0x72,8
     790                                    ; IncorrectPass[4] @ 32
     791 000004 7272          .bits           0x72,8
     792                                    ; IncorrectPass[5] @ 40
     793 000006 0065          .bits           0x65,8
     794                                    ; IncorrectPass[6] @ 48
     795 000006 6365          .bits           0x63,8
     796                                    ; IncorrectPass[7] @ 56
     797 000008 0074          .bits           0x74,8
     798                                    ; IncorrectPass[8] @ 64
     799 000008 2074          .bits           0x20,8
     800                                    ; IncorrectPass[9] @ 72
     801 00000a 0075          .bits           0x75,8
     802                                    ; IncorrectPass[10] @ 80
     803 00000a 7375          .bits           0x73,8
     804                                    ; IncorrectPass[11] @ 88
     805 00000c 0065          .bits           0x65,8
     806                                    ; IncorrectPass[12] @ 96
     807 00000c 7265          .bits           0x72,8
     808                                    ; IncorrectPass[13] @ 104
     809 00000e 006E          .bits           0x6e,8
     810                                    ; IncorrectPass[14] @ 112
     811 00000e 616E          .bits           0x61,8
     812                                    ; IncorrectPass[15] @ 120
     813 000010 006D          .bits           0x6d,8
     814                                    ; IncorrectPass[16] @ 128
     815 000010 656D          .bits           0x65,8
     816                                    ; IncorrectPass[17] @ 136
     817 000012 0020          .bits           0x20,8
     818                                    ; IncorrectPass[18] @ 144
     819 000012 6F20          .bits           0x6f,8
     820                                    ; IncorrectPass[19] @ 152
     821 000014 0072          .bits           0x72,8
     822                                    ; IncorrectPass[20] @ 160
     823 000014 2072          .bits           0x20,8
     824                                    ; IncorrectPass[21] @ 168
MSP430 Assembler PC v20.2.2 Fri Oct 30 22:03:02 2020

Copyright (c) 2003-2018 Texas Instruments Incorporated
C:\Users\tyler\AppData\Local\Temp\{AE531C7E-F4C8-4E89-9BF9-24F4C1D7A278} PAGE   16

     825 000016 0070          .bits           0x70,8
     826                                    ; IncorrectPass[22] @ 176
     827 000016 6170          .bits           0x61,8
     828                                    ; IncorrectPass[23] @ 184
     829 000018 0073          .bits           0x73,8
     830                                    ; IncorrectPass[24] @ 192
     831 000018 7373          .bits           0x73,8
     832                                    ; IncorrectPass[25] @ 200
     833 00001a 0077          .bits           0x77,8
     834                                    ; IncorrectPass[26] @ 208
     835 00001a 6F77          .bits           0x6f,8
     836                                    ; IncorrectPass[27] @ 216
     837 00001c 0072          .bits           0x72,8
     838                                    ; IncorrectPass[28] @ 224
     839 00001c 6472          .bits           0x64,8
     840                                    ; IncorrectPass[29] @ 232
     841 00001e 0021          .bits           0x21,8
     842                                    ; IncorrectPass[30] @ 240
     843 00001e 2121          .bits           0x21,8
     844                                    ; IncorrectPass[31] @ 248
     845 000020 0021          .bits           0x21,8
     846                                    ; IncorrectPass[32] @ 256
     847 000020 0021          .bits           0,8
     848                                    ; IncorrectPass[33] @ 264
     849            
     850            $C$DW$21        .dwtag  DW_TAG_variable
     851                    .dwattr $C$DW$21, DW_AT_name("IncorrectPass")
     852                    .dwattr $C$DW$21, DW_AT_TI_symbol_name("IncorrectPass")
     853                    .dwattr $C$DW$21, DW_AT_location[DW_OP_addr IncorrectPass]
     854                    .dwattr $C$DW$21, DW_AT_type(*$C$DW$T$151)
     855                    .dwattr $C$DW$21, DW_AT_external
     856                    .dwattr $C$DW$21, DW_AT_decl_file("../main.c")
     857                    .dwattr $C$DW$21, DW_AT_decl_line(0x0e)
     858                    .dwattr $C$DW$21, DW_AT_decl_column(0x06)
     859            
     860                    .global temp
     861                    .common temp,1,1
     862            $C$DW$22        .dwtag  DW_TAG_variable
     863                    .dwattr $C$DW$22, DW_AT_name("temp")
     864                    .dwattr $C$DW$22, DW_AT_TI_symbol_name("temp")
     865                    .dwattr $C$DW$22, DW_AT_location[DW_OP_addr temp]
     866                    .dwattr $C$DW$22, DW_AT_type(*$C$DW$T$6)
     867                    .dwattr $C$DW$22, DW_AT_external
     868                    .dwattr $C$DW$22, DW_AT_decl_file("../main.c")
     869                    .dwattr $C$DW$22, DW_AT_decl_line(0x0f)
     870                    .dwattr $C$DW$22, DW_AT_decl_column(0x06)
     871            
     872                    .global temp1
     873                    .common temp1,1,1
     874            $C$DW$23        .dwtag  DW_TAG_variable
     875                    .dwattr $C$DW$23, DW_AT_name("temp1")
     876                    .dwattr $C$DW$23, DW_AT_TI_symbol_name("temp1")
     877                    .dwattr $C$DW$23, DW_AT_location[DW_OP_addr temp1]
     878                    .dwattr $C$DW$23, DW_AT_type(*$C$DW$T$6)
     879                    .dwattr $C$DW$23, DW_AT_external
MSP430 Assembler PC v20.2.2 Fri Oct 30 22:03:02 2020

Copyright (c) 2003-2018 Texas Instruments Incorporated
C:\Users\tyler\AppData\Local\Temp\{AE531C7E-F4C8-4E89-9BF9-24F4C1D7A278} PAGE   17

     880                    .dwattr $C$DW$23, DW_AT_decl_file("../main.c")
     881                    .dwattr $C$DW$23, DW_AT_decl_line(0x10)
     882                    .dwattr $C$DW$23, DW_AT_decl_column(0x06)
     883            
     884                    .global i
     885 000000               .data
     886                    .align  2
     887                    .elfsym i,SYM_SIZE(2)
     888 000000       i:
     889 000000 0000          .bits           0,16
     890                                    ; i @ 0
     891            
     892            $C$DW$24        .dwtag  DW_TAG_variable
     893                    .dwattr $C$DW$24, DW_AT_name("i")
     894                    .dwattr $C$DW$24, DW_AT_TI_symbol_name("i")
     895                    .dwattr $C$DW$24, DW_AT_location[DW_OP_addr i]
     896                    .dwattr $C$DW$24, DW_AT_type(*$C$DW$T$10)
     897                    .dwattr $C$DW$24, DW_AT_external
     898                    .dwattr $C$DW$24, DW_AT_decl_file("../main.c")
     899                    .dwattr $C$DW$24, DW_AT_decl_line(0x11)
     900                    .dwattr $C$DW$24, DW_AT_decl_column(0x05)
     901            
     902                    .global j
     903 000002               .data
     904                    .align  2
     905                    .elfsym j,SYM_SIZE(2)
     906 000002       j:
     907 000002 0000          .bits           0,16
     908                                    ; j @ 0
     909            
     910            $C$DW$25        .dwtag  DW_TAG_variable
     911                    .dwattr $C$DW$25, DW_AT_name("j")
     912                    .dwattr $C$DW$25, DW_AT_TI_symbol_name("j")
     913                    .dwattr $C$DW$25, DW_AT_location[DW_OP_addr j]
     914                    .dwattr $C$DW$25, DW_AT_type(*$C$DW$T$10)
     915                    .dwattr $C$DW$25, DW_AT_external
     916                    .dwattr $C$DW$25, DW_AT_decl_file("../main.c")
     917                    .dwattr $C$DW$25, DW_AT_decl_line(0x12)
     918                    .dwattr $C$DW$25, DW_AT_decl_column(0x05)
     919            
     920                    .global k
     921 000004               .data
     922                    .align  2
     923                    .elfsym k,SYM_SIZE(2)
     924 000004       k:
     925 000004 0000          .bits           0,16
     926                                    ; k @ 0
     927            
     928            $C$DW$26        .dwtag  DW_TAG_variable
     929                    .dwattr $C$DW$26, DW_AT_name("k")
     930                    .dwattr $C$DW$26, DW_AT_TI_symbol_name("k")
     931                    .dwattr $C$DW$26, DW_AT_location[DW_OP_addr k]
     932                    .dwattr $C$DW$26, DW_AT_type(*$C$DW$T$10)
     933                    .dwattr $C$DW$26, DW_AT_external
     934                    .dwattr $C$DW$26, DW_AT_decl_file("../main.c")
MSP430 Assembler PC v20.2.2 Fri Oct 30 22:03:02 2020

Copyright (c) 2003-2018 Texas Instruments Incorporated
C:\Users\tyler\AppData\Local\Temp\{AE531C7E-F4C8-4E89-9BF9-24F4C1D7A278} PAGE   18

     935                    .dwattr $C$DW$26, DW_AT_decl_line(0x13)
     936                    .dwattr $C$DW$26, DW_AT_decl_column(0x05)
     937            
     938                    .global m
     939 000006               .data
     940                    .align  2
     941                    .elfsym m,SYM_SIZE(2)
     942 000006       m:
     943 000006 0000          .bits           0,16
     944                                    ; m @ 0
     945            
     946            $C$DW$27        .dwtag  DW_TAG_variable
     947                    .dwattr $C$DW$27, DW_AT_name("m")
     948                    .dwattr $C$DW$27, DW_AT_TI_symbol_name("m")
     949                    .dwattr $C$DW$27, DW_AT_location[DW_OP_addr m]
     950                    .dwattr $C$DW$27, DW_AT_type(*$C$DW$T$10)
     951                    .dwattr $C$DW$27, DW_AT_external
     952                    .dwattr $C$DW$27, DW_AT_decl_file("../main.c")
     953                    .dwattr $C$DW$27, DW_AT_decl_line(0x14)
     954                    .dwattr $C$DW$27, DW_AT_decl_column(0x05)
     955            
     956                    .global n
     957 000008               .data
     958                    .align  2
     959                    .elfsym n,SYM_SIZE(2)
     960 000008       n:
     961 000008 0000          .bits           0,16
     962                                    ; n @ 0
     963            
     964            $C$DW$28        .dwtag  DW_TAG_variable
     965                    .dwattr $C$DW$28, DW_AT_name("n")
     966                    .dwattr $C$DW$28, DW_AT_TI_symbol_name("n")
     967                    .dwattr $C$DW$28, DW_AT_location[DW_OP_addr n]
     968                    .dwattr $C$DW$28, DW_AT_type(*$C$DW$T$10)
     969                    .dwattr $C$DW$28, DW_AT_external
     970                    .dwattr $C$DW$28, DW_AT_decl_file("../main.c")
     971                    .dwattr $C$DW$28, DW_AT_decl_line(0x15)
     972                    .dwattr $C$DW$28, DW_AT_decl_column(0x05)
     973            
     974                    .global sec
     975 00000a               .data
     976                    .align  2
     977                    .elfsym sec,SYM_SIZE(2)
     978 00000a       sec:
     979 00000a 0000          .bits           0,16
     980                                    ; sec @ 0
     981            
     982            $C$DW$29        .dwtag  DW_TAG_variable
     983                    .dwattr $C$DW$29, DW_AT_name("sec")
     984                    .dwattr $C$DW$29, DW_AT_TI_symbol_name("sec")
     985                    .dwattr $C$DW$29, DW_AT_location[DW_OP_addr sec]
     986                    .dwattr $C$DW$29, DW_AT_type(*$C$DW$T$10)
     987                    .dwattr $C$DW$29, DW_AT_external
     988                    .dwattr $C$DW$29, DW_AT_decl_file("../main.c")
     989                    .dwattr $C$DW$29, DW_AT_decl_line(0x16)
MSP430 Assembler PC v20.2.2 Fri Oct 30 22:03:02 2020

Copyright (c) 2003-2018 Texas Instruments Incorporated
C:\Users\tyler\AppData\Local\Temp\{AE531C7E-F4C8-4E89-9BF9-24F4C1D7A278} PAGE   19

     990                    .dwattr $C$DW$29, DW_AT_decl_column(0x05)
     991            
     992                    .global tsec
     993 00000c               .data
     994                    .align  2
     995                    .elfsym tsec,SYM_SIZE(2)
     996 00000c       tsec:
     997 00000c 0000          .bits           0,16
     998                                    ; tsec @ 0
     999            
    1000            $C$DW$30        .dwtag  DW_TAG_variable
    1001                    .dwattr $C$DW$30, DW_AT_name("tsec")
    1002                    .dwattr $C$DW$30, DW_AT_TI_symbol_name("tsec")
    1003                    .dwattr $C$DW$30, DW_AT_location[DW_OP_addr tsec]
    1004                    .dwattr $C$DW$30, DW_AT_type(*$C$DW$T$10)
    1005                    .dwattr $C$DW$30, DW_AT_external
    1006                    .dwattr $C$DW$30, DW_AT_decl_file("../main.c")
    1007                    .dwattr $C$DW$30, DW_AT_decl_line(0x17)
    1008                    .dwattr $C$DW$30, DW_AT_decl_column(0x05)
    1009            
    1010                    .global noPassWord
    1011 00000e               .data
    1012                    .align  2
    1013                    .elfsym noPassWord,SYM_SIZE(2)
    1014 00000e       noPassWord:
    1015 00000e 0000          .bits           0,16
    1016                                    ; noPassWord @ 0
    1017            
    1018            $C$DW$31        .dwtag  DW_TAG_variable
    1019                    .dwattr $C$DW$31, DW_AT_name("noPassWord")
    1020                    .dwattr $C$DW$31, DW_AT_TI_symbol_name("noPassWord")
    1021                    .dwattr $C$DW$31, DW_AT_location[DW_OP_addr noPassWord]
    1022                    .dwattr $C$DW$31, DW_AT_type(*$C$DW$T$10)
    1023                    .dwattr $C$DW$31, DW_AT_external
    1024                    .dwattr $C$DW$31, DW_AT_decl_file("../main.c")
    1025                    .dwattr $C$DW$31, DW_AT_decl_line(0x18)
    1026                    .dwattr $C$DW$31, DW_AT_decl_column(0x05)
    1027            
    1028                    .global userIncorrect
    1029 000010               .data
    1030                    .align  2
    1031                    .elfsym userIncorrect,SYM_SIZE(2)
    1032 000010       userIncorrect:
    1033 000010 0000          .bits           0,16
    1034                                    ; userIncorrect @ 0
    1035            
    1036            $C$DW$32        .dwtag  DW_TAG_variable
    1037                    .dwattr $C$DW$32, DW_AT_name("userIncorrect")
    1038                    .dwattr $C$DW$32, DW_AT_TI_symbol_name("userIncorrect")
    1039                    .dwattr $C$DW$32, DW_AT_location[DW_OP_addr userIncorrect]
    1040                    .dwattr $C$DW$32, DW_AT_type(*$C$DW$T$10)
    1041                    .dwattr $C$DW$32, DW_AT_external
    1042                    .dwattr $C$DW$32, DW_AT_decl_file("../main.c")
    1043                    .dwattr $C$DW$32, DW_AT_decl_line(0x19)
    1044                    .dwattr $C$DW$32, DW_AT_decl_column(0x05)
MSP430 Assembler PC v20.2.2 Fri Oct 30 22:03:02 2020

Copyright (c) 2003-2018 Texas Instruments Incorporated
C:\Users\tyler\AppData\Local\Temp\{AE531C7E-F4C8-4E89-9BF9-24F4C1D7A278} PAGE   20

    1045            
    1046                    .global passIncorrect
    1047 000012               .data
    1048                    .align  2
    1049                    .elfsym passIncorrect,SYM_SIZE(2)
    1050 000012       passIncorrect:
    1051 000012 0000          .bits           0,16
    1052                                    ; passIncorrect @ 0
    1053            
    1054            $C$DW$33        .dwtag  DW_TAG_variable
    1055                    .dwattr $C$DW$33, DW_AT_name("passIncorrect")
    1056                    .dwattr $C$DW$33, DW_AT_TI_symbol_name("passIncorrect")
    1057                    .dwattr $C$DW$33, DW_AT_location[DW_OP_addr passIncorrect]
    1058                    .dwattr $C$DW$33, DW_AT_type(*$C$DW$T$10)
    1059                    .dwattr $C$DW$33, DW_AT_external
    1060                    .dwattr $C$DW$33, DW_AT_decl_file("../main.c")
    1061                    .dwattr $C$DW$33, DW_AT_decl_line(0x1a)
    1062                    .dwattr $C$DW$33, DW_AT_decl_column(0x05)
    1063            
    1064                    .global userIncorrect1
    1065 000014               .data
    1066                    .align  2
    1067                    .elfsym userIncorrect1,SYM_SIZE(2)
    1068 000014       userIncorrect1:
    1069 000014 0000          .bits           0,16
    1070                                    ; userIncorrect1 @ 0
    1071            
    1072            $C$DW$34        .dwtag  DW_TAG_variable
    1073                    .dwattr $C$DW$34, DW_AT_name("userIncorrect1")
    1074                    .dwattr $C$DW$34, DW_AT_TI_symbol_name("userIncorrect1")
    1075                    .dwattr $C$DW$34, DW_AT_location[DW_OP_addr userIncorrect1]
    1076                    .dwattr $C$DW$34, DW_AT_type(*$C$DW$T$10)
    1077                    .dwattr $C$DW$34, DW_AT_external
    1078                    .dwattr $C$DW$34, DW_AT_decl_file("../main.c")
    1079                    .dwattr $C$DW$34, DW_AT_decl_line(0x1b)
    1080                    .dwattr $C$DW$34, DW_AT_decl_column(0x05)
    1081            
    1082                    .global passIncorrect1
    1083 000016               .data
    1084                    .align  2
    1085                    .elfsym passIncorrect1,SYM_SIZE(2)
    1086 000016       passIncorrect1:
    1087 000016 0000          .bits           0,16
    1088                                    ; passIncorrect1 @ 0
    1089            
    1090            $C$DW$35        .dwtag  DW_TAG_variable
    1091                    .dwattr $C$DW$35, DW_AT_name("passIncorrect1")
    1092                    .dwattr $C$DW$35, DW_AT_TI_symbol_name("passIncorrect1")
    1093                    .dwattr $C$DW$35, DW_AT_location[DW_OP_addr passIncorrect1]
    1094                    .dwattr $C$DW$35, DW_AT_type(*$C$DW$T$10)
    1095                    .dwattr $C$DW$35, DW_AT_external
    1096                    .dwattr $C$DW$35, DW_AT_decl_file("../main.c")
    1097                    .dwattr $C$DW$35, DW_AT_decl_line(0x1c)
    1098                    .dwattr $C$DW$35, DW_AT_decl_column(0x05)
    1099            
MSP430 Assembler PC v20.2.2 Fri Oct 30 22:03:02 2020

Copyright (c) 2003-2018 Texas Instruments Incorporated
C:\Users\tyler\AppData\Local\Temp\{AE531C7E-F4C8-4E89-9BF9-24F4C1D7A278} PAGE   21

    1100                    .global enteredPassWord
    1101 000018               .data
    1102                    .align  2
    1103                    .elfsym enteredPassWord,SYM_SIZE(2)
    1104 000018       enteredPassWord:
    1105 000018 0000          .bits           0,16
    1106                                    ; enteredPassWord @ 0
    1107            
    1108            $C$DW$36        .dwtag  DW_TAG_variable
    1109                    .dwattr $C$DW$36, DW_AT_name("enteredPassWord")
    1110                    .dwattr $C$DW$36, DW_AT_TI_symbol_name("enteredPassWord")
    1111                    .dwattr $C$DW$36, DW_AT_location[DW_OP_addr enteredPassWord]
    1112                    .dwattr $C$DW$36, DW_AT_type(*$C$DW$T$10)
    1113                    .dwattr $C$DW$36, DW_AT_external
    1114                    .dwattr $C$DW$36, DW_AT_decl_file("../main.c")
    1115                    .dwattr $C$DW$36, DW_AT_decl_line(0x1d)
    1116                    .dwattr $C$DW$36, DW_AT_decl_column(0x05)
    1117            
    1118            
    1119            $C$DW$37        .dwtag  DW_TAG_subprogram
    1120                    .dwattr $C$DW$37, DW_AT_name("testUserTwo")
    1121                    .dwattr $C$DW$37, DW_AT_TI_symbol_name("testUserTwo")
    1122                    .dwattr $C$DW$37, DW_AT_type(*$C$DW$T$10)
    1123                    .dwattr $C$DW$37, DW_AT_declaration
    1124                    .dwattr $C$DW$37, DW_AT_external
    1125                    .dwattr $C$DW$37, DW_AT_decl_file("../main.c")
    1126                    .dwattr $C$DW$37, DW_AT_decl_line(0x58)
    1127                    .dwattr $C$DW$37, DW_AT_decl_column(0x09)
    1128                    .dwendtag $C$DW$37
    1129            
    1130            ;       C:\ti\ccs1010\ccs\tools\compiler\ti-cgt-msp430_20.2.2.LTS\bin\acpia430.exe -@C:\\Users\\tyler\
    1131 000000               .sect   ".text:UART_setup"
    1132                    .clink
    1133                    .global UART_setup
    1134            
    1135            $C$DW$38        .dwtag  DW_TAG_subprogram
    1136                    .dwattr $C$DW$38, DW_AT_name("UART_setup")
    1137                    .dwattr $C$DW$38, DW_AT_low_pc(UART_setup)
    1138                    .dwattr $C$DW$38, DW_AT_high_pc(0x00)
    1139                    .dwattr $C$DW$38, DW_AT_TI_symbol_name("UART_setup")
    1140                    .dwattr $C$DW$38, DW_AT_external
    1141                    .dwattr $C$DW$38, DW_AT_TI_begin_file("../main.c")
    1142                    .dwattr $C$DW$38, DW_AT_TI_begin_line(0x1f)
    1143                    .dwattr $C$DW$38, DW_AT_TI_begin_column(0x06)
    1144                    .dwattr $C$DW$38, DW_AT_decl_file("../main.c")
    1145                    .dwattr $C$DW$38, DW_AT_decl_line(0x1f)
    1146                    .dwattr $C$DW$38, DW_AT_decl_column(0x06)
    1147                    .dwattr $C$DW$38, DW_AT_TI_max_frame_size(0x02)
    1148                    .dwpsn  file "../main.c",line 32,column 1,is_stmt,address UART_setup,isa 0
    1149            
    1150                    .dwfde $C$DW$CIE, UART_setup
    1151            
    1152            ;*****************************************************************************
    1153            ;* FUNCTION NAME: UART_setup                                                 *
    1154            ;*                                                                           *
MSP430 Assembler PC v20.2.2 Fri Oct 30 22:03:02 2020

Copyright (c) 2003-2018 Texas Instruments Incorporated
C:\Users\tyler\AppData\Local\Temp\{AE531C7E-F4C8-4E89-9BF9-24F4C1D7A278} PAGE   22

    1155            ;*   Regs Modified     : SP                                                  *
    1156            ;*   Regs Used         : SP                                                  *
    1157            ;*   Local Frame Size  : 0 Args + 0 Auto + 0 Save = 0 byte                   *
    1158            ;*****************************************************************************
    1159 000000       UART_setup:
    1160            ;* --------------------------------------------------------------------------*
    1161                    .dwcfi  cfa_offset, 2
    1162                    .dwcfi  save_reg_to_mem, 16, -2
    1163                    .dwpsn  file "../main.c",line 34,column 5,is_stmt,isa 0
    1164 000000 D0F2          OR.B      #24,&PBSEL_L+0        ; [] |34| 
         000002 0018 
         000004 0000!
    1165                    .dwpsn  file "../main.c",line 35,column 5,is_stmt,isa 0
    1166 000006 D3D2          OR.B      #1,&UCA0CTLW0_L+0     ; [] |35| 
         000008 0000!
    1167                    .dwpsn  file "../main.c",line 36,column 5,is_stmt,isa 0
    1168 00000a 43C2          MOV.B     #0,&UCA0CTLW0_H+0     ; [] |36| 
         00000c 0000!
    1169                    .dwpsn  file "../main.c",line 37,column 5,is_stmt,isa 0
    1170 00000e D0F2          OR.B      #128,&UCA0CTLW0_L+0   ; [] |37| 
         000010 0080 
         000012 0000!
    1171                    .dwpsn  file "../main.c",line 39,column 5,is_stmt,isa 0
    1172 000014 40F2          MOV.B     #9,&UCA0BRW_L+0       ; [] |39| 
         000016 0009 
         000018 0000!
    1173                    .dwpsn  file "../main.c",line 40,column 5,is_stmt,isa 0
    1174 00001a 43C2          MOV.B     #0,&UCA0BRW_H+0       ; [] |40| 
         00001c 0000!
    1175                    .dwpsn  file "../main.c",line 41,column 5,is_stmt,isa 0
    1176 00001e D3E2          OR.B      #2,&UCA0MCTL+0        ; [] |41| 
         000020 0000!
    1177                    .dwpsn  file "../main.c",line 43,column 5,is_stmt,isa 0
    1178 000022 C3D2          BIC.B     #1,&UCA0CTLW0_L+0     ; [] |43| 
         000024 0000!
    1179                    .dwpsn  file "../main.c",line 44,column 1,is_stmt,isa 0
    1180            $C$DW$39        .dwtag  DW_TAG_TI_branch
    1181                    .dwattr $C$DW$39, DW_AT_low_pc(0x00)
    1182                    .dwattr $C$DW$39, DW_AT_TI_return
    1183            
    1184 000026 4130          RET       ; [] 
    1185                    ; [] 
    1186                    .dwattr $C$DW$38, DW_AT_TI_end_file("../main.c")
    1187                    .dwattr $C$DW$38, DW_AT_TI_end_line(0x2c)
    1188                    .dwattr $C$DW$38, DW_AT_TI_end_column(0x01)
    1189                    .dwendentry
    1190                    .dwendtag $C$DW$38
    1191            
    1192 000000               .sect   ".text:SetTime"
    1193                    .clink
    1194                    .global SetTime
    1195            
    1196            $C$DW$40        .dwtag  DW_TAG_subprogram
    1197                    .dwattr $C$DW$40, DW_AT_name("SetTime")
    1198                    .dwattr $C$DW$40, DW_AT_low_pc(SetTime)
MSP430 Assembler PC v20.2.2 Fri Oct 30 22:03:02 2020

Copyright (c) 2003-2018 Texas Instruments Incorporated
C:\Users\tyler\AppData\Local\Temp\{AE531C7E-F4C8-4E89-9BF9-24F4C1D7A278} PAGE   23

    1199                    .dwattr $C$DW$40, DW_AT_high_pc(0x00)
    1200                    .dwattr $C$DW$40, DW_AT_TI_symbol_name("SetTime")
    1201                    .dwattr $C$DW$40, DW_AT_external
    1202                    .dwattr $C$DW$40, DW_AT_TI_begin_file("../main.c")
    1203                    .dwattr $C$DW$40, DW_AT_TI_begin_line(0x2e)
    1204                    .dwattr $C$DW$40, DW_AT_TI_begin_column(0x06)
    1205                    .dwattr $C$DW$40, DW_AT_decl_file("../main.c")
    1206                    .dwattr $C$DW$40, DW_AT_decl_line(0x2e)
    1207                    .dwattr $C$DW$40, DW_AT_decl_column(0x06)
    1208                    .dwattr $C$DW$40, DW_AT_TI_max_frame_size(0x02)
    1209                    .dwpsn  file "../main.c",line 47,column 1,is_stmt,address SetTime,isa 0
    1210            
    1211                    .dwfde $C$DW$CIE, SetTime
    1212            
    1213            ;*****************************************************************************
    1214            ;* FUNCTION NAME: SetTime                                                    *
    1215            ;*                                                                           *
    1216            ;*   Regs Modified     : SP,SR                                               *
    1217            ;*   Regs Used         : SP,SR                                               *
    1218            ;*   Local Frame Size  : 0 Args + 0 Auto + 0 Save = 0 byte                   *
    1219            ;*****************************************************************************
    1220 000000       SetTime:
    1221            ;* --------------------------------------------------------------------------*
    1222                    .dwcfi  cfa_offset, 2
    1223                    .dwcfi  save_reg_to_mem, 16, -2
    1224                    .dwpsn  file "../main.c",line 48,column 5,is_stmt,isa 0
    1225 000000 5392          ADD.W     #1,&tsec+0            ; [] |48| 
         000002 0000!
    1226                    .dwpsn  file "../main.c",line 49,column 5,is_stmt,isa 0
    1227 000004 90B2          CMP.W     #10,&tsec+0           ; [] |49| 
         000006 000A 
         000008 0000!
    1228 00000a 200A          JNE       $C$L1                 ; [] |49| 
    1229                                                      ; [] |49| 
    1230            ;* --------------------------------------------------------------------------*
    1231                    .dwpsn  file "../main.c",line 51,column 9,is_stmt,isa 0
    1232 00000c 4382          MOV.W     #0,&tsec+0            ; [] |51| 
         00000e 0000!
    1233                    .dwpsn  file "../main.c",line 52,column 9,is_stmt,isa 0
    1234 000010 4392          MOV.W     #1,&noPassWord+0      ; [] |52| 
         000012 0000!
    1235                    .dwpsn  file "../main.c",line 53,column 9,is_stmt,isa 0
    1236 000014 40B2          MOV.W     #23168,&WDTCTL+0      ; [] |53| 
         000016 5A80 
         000018 0000!
    1237                    .dwpsn  file "../main.c",line 54,column 9,is_stmt,isa 0
    1238 00001a C392          BIC.W     #1,&SFRIE1+0          ; [] |54| 
         00001c 0000!
    1239                    .dwpsn  file "../main.c",line 55,column 9,is_stmt,isa 0
    1240 00001e 3C00          JMP       $C$L1                 ; [] |55| 
    1241                                                      ; [] |55| 
    1242            ;* --------------------------------------------------------------------------*
    1243            ;* --------------------------------------------------------------------------*
    1244            $C$L1:    
    1245            $C$DW$41        .dwtag  DW_TAG_TI_branch
MSP430 Assembler PC v20.2.2 Fri Oct 30 22:03:02 2020

Copyright (c) 2003-2018 Texas Instruments Incorporated
C:\Users\tyler\AppData\Local\Temp\{AE531C7E-F4C8-4E89-9BF9-24F4C1D7A278} PAGE   24

    1246                    .dwattr $C$DW$41, DW_AT_low_pc(0x00)
    1247                    .dwattr $C$DW$41, DW_AT_TI_return
    1248            
    1249 000020 4130          RET       ; [] 
    1250                    ; [] 
    1251                    .dwattr $C$DW$40, DW_AT_TI_end_file("../main.c")
    1252                    .dwattr $C$DW$40, DW_AT_TI_end_line(0x39)
    1253                    .dwattr $C$DW$40, DW_AT_TI_end_column(0x01)
    1254                    .dwendentry
    1255                    .dwendtag $C$DW$40
    1256            
    1257 000000               .sect   ".text:testUserOne"
    1258                    .clink
    1259                    .global testUserOne
    1260            
    1261            $C$DW$42        .dwtag  DW_TAG_subprogram
    1262                    .dwattr $C$DW$42, DW_AT_name("testUserOne")
    1263                    .dwattr $C$DW$42, DW_AT_low_pc(testUserOne)
    1264                    .dwattr $C$DW$42, DW_AT_high_pc(0x00)
    1265                    .dwattr $C$DW$42, DW_AT_TI_symbol_name("testUserOne")
    1266                    .dwattr $C$DW$42, DW_AT_external
    1267                    .dwattr $C$DW$42, DW_AT_TI_begin_file("../main.c")
    1268                    .dwattr $C$DW$42, DW_AT_TI_begin_line(0x3c)
    1269                    .dwattr $C$DW$42, DW_AT_TI_begin_column(0x06)
    1270                    .dwattr $C$DW$42, DW_AT_decl_file("../main.c")
    1271                    .dwattr $C$DW$42, DW_AT_decl_line(0x3c)
    1272                    .dwattr $C$DW$42, DW_AT_decl_column(0x06)
    1273                    .dwattr $C$DW$42, DW_AT_TI_max_frame_size(0x02)
    1274                    .dwpsn  file "../main.c",line 61,column 1,is_stmt,address testUserOne,isa 0
    1275            
    1276                    .dwfde $C$DW$CIE, testUserOne
    1277            
    1278            ;*****************************************************************************
    1279            ;* FUNCTION NAME: testUserOne                                                *
    1280            ;*                                                                           *
    1281            ;*   Regs Modified     : SP,SR,r11,r12,r13,r14,r15                           *
    1282            ;*   Regs Used         : SP,SR,r11,r12,r13,r14,r15                           *
    1283            ;*   Local Frame Size  : 0 Args + 0 Auto + 0 Save = 0 byte                   *
    1284            ;*****************************************************************************
    1285 000000       testUserOne:
    1286            ;* --------------------------------------------------------------------------*
    1287                    .dwcfi  cfa_offset, 2
    1288                    .dwcfi  save_reg_to_mem, 16, -2
    1289                    .dwpsn  file "../main.c",line 62,column 9,is_stmt,isa 0
    1290 000000 4382          MOV.W     #0,&j+0               ; [] |62| 
         000002 0000!
    1291                    .dwpsn  file "../main.c",line 62,column 16,is_stmt,isa 0
    1292 000004 90B2          CMP.W     #50,&j+0              ; [] |62| 
         000006 0032 
         000008 0000!
    1293 00000a 2C12          JHS       $C$L4                 ; [] |62| 
    1294                                                      ; [] |62| 
    1295            ;* --------------------------------------------------------------------------*
    1296                    .dwpsn  file "../main.c",line 63,column 9,is_stmt,isa 0
    1297            ;* --------------------------------------------------------------------------*
MSP430 Assembler PC v20.2.2 Fri Oct 30 22:03:02 2020

Copyright (c) 2003-2018 Texas Instruments Incorporated
C:\Users\tyler\AppData\Local\Temp\{AE531C7E-F4C8-4E89-9BF9-24F4C1D7A278} PAGE   25

    1298            ;*   BEGIN LOOP $C$L2
    1299            ;*
    1300            ;*   Loop source line                : 63
    1301            ;*   Loop closing brace source line  : 63
    1302            ;*   Known Minimum Trip Count        : 1
    1303            ;*   Known Maximum Trip Count        : 4294967295
    1304            ;*   Known Max Trip Count Factor     : 1
    1305            ;* --------------------------------------------------------------------------*
    1306 00000c       $C$L2:    
    1307                    .dwpsn  file "../main.c",line 63,column 15,is_stmt,isa 0
    1308 00000c B3E2          BIT.B     #2,&UCA0ICTL_H+0      ; [] |63| 
         00000e 0000!
    1309 000010 27FD          JEQ       $C$L2                 ; [] |63| 
    1310                                                      ; [] |63| 
    1311            ;* --------------------------------------------------------------------------*
    1312                    .dwpsn  file "../main.c",line 64,column 9,is_stmt,isa 0
    1313 000012 421F          MOV.W     &j+0,r15              ; [] |64| 
         000014 0000!
    1314 000016 9FDF          CMP.B     OneUserName+0(r15),TestUserName+0(r15) ; [] |64| 
         000018 0000!
         00001a 0000!
    1315 00001c 2403          JEQ       $C$L3                 ; [] |64| 
    1316                                                      ; [] |64| 
    1317            ;* --------------------------------------------------------------------------*
    1318                    .dwpsn  file "../main.c",line 65,column 13,is_stmt,isa 0
    1319 00001e 4392          MOV.W     #1,&userIncorrect+0   ; [] |65| 
         000020 0000!
    1320                    .dwpsn  file "../main.c",line 66,column 13,is_stmt,isa 0
    1321 000022 3C06          JMP       $C$L4                 ; [] |66| 
    1322                                                      ; [] |66| 
    1323            ;* --------------------------------------------------------------------------*
    1324 000024       $C$L3:    
    1325                    .dwpsn  file "../main.c",line 62,column 41,is_stmt,isa 0
    1326 000024 5392          ADD.W     #1,&j+0               ; [] |62| 
         000026 0000!
    1327                    .dwpsn  file "../main.c",line 62,column 16,is_stmt,isa 0
    1328 000028 90B2          CMP.W     #50,&j+0              ; [] |62| 
         00002a 0032 
         00002c 0000!
    1329 00002e 2BEE          JLO       $C$L2                 ; [] |62| 
    1330                                                      ; [] |62| 
    1331            ;* --------------------------------------------------------------------------*
    1332 000030       $C$L4:    
    1333                    .dwpsn  file "../main.c",line 69,column 5,is_stmt,isa 0
    1334 000030 9382          TST.W     &userIncorrect+0      ; [] |69| 
         000032 0000!
    1335 000034 2015          JNE       $C$L7                 ; [] |69| 
    1336                                                      ; [] |69| 
    1337            ;* --------------------------------------------------------------------------*
    1338                    .dwpsn  file "../main.c",line 70,column 13,is_stmt,isa 0
    1339 000036 4382          MOV.W     #0,&j+0               ; [] |70| 
         000038 0000!
    1340                    .dwpsn  file "../main.c",line 70,column 20,is_stmt,isa 0
    1341 00003a 90B2          CMP.W     #50,&j+0              ; [] |70| 
         00003c 0032 
MSP430 Assembler PC v20.2.2 Fri Oct 30 22:03:02 2020

Copyright (c) 2003-2018 Texas Instruments Incorporated
C:\Users\tyler\AppData\Local\Temp\{AE531C7E-F4C8-4E89-9BF9-24F4C1D7A278} PAGE   26

         00003e 0000!
    1342 000040 2C0F          JHS       $C$L7                 ; [] |70| 
    1343                                                      ; [] |70| 
    1344            ;* --------------------------------------------------------------------------*
    1345            ;*   BEGIN LOOP $C$L5
    1346            ;*
    1347            ;*   Loop source line                : 70
    1348            ;*   Loop closing brace source line  : 75
    1349            ;*   Known Minimum Trip Count        : 1
    1350            ;*   Known Maximum Trip Count        : 4294967295
    1351            ;*   Known Max Trip Count Factor     : 1
    1352            ;* --------------------------------------------------------------------------*
    1353 000042       $C$L5:    
    1354                    .dwpsn  file "../main.c",line 71,column 13,is_stmt,isa 0
    1355 000042 421F          MOV.W     &j+0,r15              ; [] |71| 
         000044 0000!
    1356 000046 9FDF          CMP.B     OnePassWord+0(r15),TestPassWord+0(r15) ; [] |71| 
         000048 0000!
         00004a 0000!
    1357 00004c 2403          JEQ       $C$L6                 ; [] |71| 
    1358                                                      ; [] |71| 
    1359            ;* --------------------------------------------------------------------------*
    1360                    .dwpsn  file "../main.c",line 72,column 17,is_stmt,isa 0
    1361 00004e 4392          MOV.W     #1,&passIncorrect+0   ; [] |72| 
         000050 0000!
    1362                    .dwpsn  file "../main.c",line 73,column 17,is_stmt,isa 0
    1363 000052 3C06          JMP       $C$L7                 ; [] |73| 
    1364                                                      ; [] |73| 
    1365            ;* --------------------------------------------------------------------------*
    1366 000054       $C$L6:    
    1367                    .dwpsn  file "../main.c",line 70,column 45,is_stmt,isa 0
    1368 000054 5392          ADD.W     #1,&j+0               ; [] |70| 
         000056 0000!
    1369                    .dwpsn  file "../main.c",line 70,column 20,is_stmt,isa 0
    1370 000058 90B2          CMP.W     #50,&j+0              ; [] |70| 
         00005a 0032 
         00005c 0000!
    1371 00005e 2BF1          JLO       $C$L5                 ; [] |70| 
    1372                                                      ; [] |70| 
    1373            ;* --------------------------------------------------------------------------*
    1374 000060       $C$L7:    
    1375                    .dwpsn  file "../main.c",line 77,column 5,is_stmt,isa 0
    1376 000060 9382          TST.W     &userIncorrect+0      ; [] |77| 
         000062 0000!
    1377 000064 2023          JNE       $C$L12                ; [] |77| 
    1378                                                      ; [] |77| 
    1379            ;* --------------------------------------------------------------------------*
    1380 000066 9382          TST.W     &passIncorrect+0      ; [] |77| 
         000068 0000!
    1381 00006a 2020          JNE       $C$L12                ; [] |77| 
    1382                                                      ; [] |77| 
    1383            ;* --------------------------------------------------------------------------*
    1384                    .dwpsn  file "../main.c",line 78,column 14,is_stmt,isa 0
    1385 00006c 4382          MOV.W     #0,&i+0               ; [] |78| 
         00006e 0000!
MSP430 Assembler PC v20.2.2 Fri Oct 30 22:03:02 2020

Copyright (c) 2003-2018 Texas Instruments Incorporated
C:\Users\tyler\AppData\Local\Temp\{AE531C7E-F4C8-4E89-9BF9-24F4C1D7A278} PAGE   27

    1386                    .dwpsn  file "../main.c",line 78,column 21,is_stmt,isa 0
    1387 000070 90B2          CMP.W     #22,&i+0              ; [] |78| 
         000072 0016 
         000074 0000!
    1388 000076 2C0E          JHS       $C$L9                 ; [] |78| 
    1389                                                      ; [] |78| 
    1390            ;* --------------------------------------------------------------------------*
    1391                    .dwpsn  file "../main.c",line 79,column 13,is_stmt,isa 0
    1392            ;* --------------------------------------------------------------------------*
    1393            ;*   BEGIN LOOP $C$L8
    1394            ;*
    1395            ;*   Loop source line                : 79
    1396            ;*   Loop closing brace source line  : 79
    1397            ;*   Known Minimum Trip Count        : 1
    1398            ;*   Known Maximum Trip Count        : 4294967295
    1399            ;*   Known Max Trip Count Factor     : 1
    1400            ;* --------------------------------------------------------------------------*
    1401 000078       $C$L8:    
    1402                    .dwpsn  file "../main.c",line 79,column 19,is_stmt,isa 0
    1403 000078 B3E2          BIT.B     #2,&UCA0ICTL_H+0      ; [] |79| 
         00007a 0000!
    1404 00007c 27FD          JEQ       $C$L8                 ; [] |79| 
    1405                                                      ; [] |79| 
    1406            ;* --------------------------------------------------------------------------*
    1407                    .dwpsn  file "../main.c",line 80,column 13,is_stmt,isa 0
    1408 00007e 421F          MOV.W     &i+0,r15              ; [] |80| 
         000080 0000!
    1409 000082 4FD2          MOV.B     CorrectPass+0(r15),&UCA0TXBUF+0 ; [] |80| 
         000084 0000!
         000086 0000!
    1410                    .dwpsn  file "../main.c",line 78,column 46,is_stmt,isa 0
    1411 000088 5392          ADD.W     #1,&i+0               ; [] |78| 
         00008a 0000!
    1412                    .dwpsn  file "../main.c",line 78,column 21,is_stmt,isa 0
    1413 00008c 90B2          CMP.W     #22,&i+0              ; [] |78| 
         00008e 0016 
         000090 0000!
    1414 000092 2BF2          JLO       $C$L8                 ; [] |78| 
    1415                                                      ; [] |78| 
    1416            ;* --------------------------------------------------------------------------*
    1417 000094       $C$L9:    
    1418                    .dwpsn  file "../main.c",line 82,column 9,is_stmt,isa 0
    1419 000094 40F2          MOV.B     #10,&UCA0TXBUF+0      ; [] |82| 
         000096 000A 
         000098 0000!
    1420                    .dwpsn  file "../main.c",line 83,column 9,is_stmt,isa 0
    1421            ;* --------------------------------------------------------------------------*
    1422            ;*   BEGIN LOOP $C$L10
    1423            ;*
    1424            ;*   Loop source line                : 83
    1425            ;*   Loop closing brace source line  : 83
    1426            ;*   Known Minimum Trip Count        : 1
    1427            ;*   Known Maximum Trip Count        : 4294967295
    1428            ;*   Known Max Trip Count Factor     : 1
    1429            ;* --------------------------------------------------------------------------*
MSP430 Assembler PC v20.2.2 Fri Oct 30 22:03:02 2020

Copyright (c) 2003-2018 Texas Instruments Incorporated
C:\Users\tyler\AppData\Local\Temp\{AE531C7E-F4C8-4E89-9BF9-24F4C1D7A278} PAGE   28

    1430 00009a       $C$L10:    
    1431                    .dwpsn  file "../main.c",line 83,column 15,is_stmt,isa 0
    1432 00009a B3E2          BIT.B     #2,&UCA0ICTL_H+0      ; [] |83| 
         00009c 0000!
    1433 00009e 27FD          JEQ       $C$L10                ; [] |83| 
    1434                                                      ; [] |83| 
    1435            ;* --------------------------------------------------------------------------*
    1436                    .dwpsn  file "../main.c",line 84,column 9,is_stmt,isa 0
    1437 0000a0 40F2          MOV.B     #13,&UCA0TXBUF+0      ; [] |84| 
         0000a2 000D 
         0000a4 0000!
    1438                    .dwpsn  file "../main.c",line 85,column 9,is_stmt,isa 0
    1439            ;* --------------------------------------------------------------------------*
    1440            ;*   BEGIN LOOP $C$L11
    1441            ;*
    1442            ;*   Loop source line                : 85
    1443            ;*   Loop closing brace source line  : 85
    1444            ;*   Known Minimum Trip Count        : 1
    1445            ;*   Known Maximum Trip Count        : 4294967295
    1446            ;*   Known Max Trip Count Factor     : 1
    1447            ;* --------------------------------------------------------------------------*
    1448 0000a6       $C$L11:    
    1449                    .dwpsn  file "../main.c",line 85,column 15,is_stmt,isa 0
    1450 0000a6 B3E2          BIT.B     #2,&UCA0ICTL_H+0      ; [] |85| 
         0000a8 0000!
    1451 0000aa 27FD          JEQ       $C$L11                ; [] |85| 
    1452                                                      ; [] |85| 
    1453            ;* --------------------------------------------------------------------------*
    1454 0000ac       $C$L12:    
    1455                    .dwpsn  file "../main.c",line 87,column 5,is_stmt,isa 0
    1456 0000ac 9392          CMP.W     #1,&userIncorrect+0   ; [] |87| 
         0000ae 0000!
    1457 0000b0 2403          JEQ       $C$L13                ; [] |87| 
    1458                                                      ; [] |87| 
    1459            ;* --------------------------------------------------------------------------*
    1460 0000b2 9392          CMP.W     #1,&passIncorrect+0   ; [] |87| 
         0000b4 0000!
    1461 0000b6 2002          JNE       $C$L14                ; [] |87| 
    1462                                                      ; [] |87| 
    1463            ;* --------------------------------------------------------------------------*
    1464 0000b8       $C$L13:    
    1465                    .dwpsn  file "../main.c",line 88,column 9,is_stmt,isa 0
    1466            $C$DW$43        .dwtag  DW_TAG_TI_branch
    1467                    .dwattr $C$DW$43, DW_AT_low_pc(0x00)
    1468                    .dwattr $C$DW$43, DW_AT_name("testUserTwo")
    1469                    .dwattr $C$DW$43, DW_AT_TI_call
    1470            
    1471 0000b8 12B0          CALL      #testUserTwo          ; [] |88| 
         0000ba 0000!
    1472                                                      ; [] |88| 
    1473                    .dwpsn  file "../main.c",line 91,column 1,is_stmt,isa 0
    1474            ;* --------------------------------------------------------------------------*
    1475            $C$L14:    
    1476            $C$DW$44        .dwtag  DW_TAG_TI_branch
    1477                    .dwattr $C$DW$44, DW_AT_low_pc(0x00)
MSP430 Assembler PC v20.2.2 Fri Oct 30 22:03:02 2020

Copyright (c) 2003-2018 Texas Instruments Incorporated
C:\Users\tyler\AppData\Local\Temp\{AE531C7E-F4C8-4E89-9BF9-24F4C1D7A278} PAGE   29

    1478                    .dwattr $C$DW$44, DW_AT_TI_return
    1479            
    1480 0000bc 4130          RET       ; [] 
    1481                    ; [] 
    1482                    .dwattr $C$DW$42, DW_AT_TI_end_file("../main.c")
    1483                    .dwattr $C$DW$42, DW_AT_TI_end_line(0x5b)
    1484                    .dwattr $C$DW$42, DW_AT_TI_end_column(0x01)
    1485                    .dwendentry
    1486                    .dwendtag $C$DW$42
    1487            
    1488 000000               .sect   ".text:testUserTwo"
    1489                    .clink
    1490                    .global testUserTwo
    1491            
    1492            $C$DW$45        .dwtag  DW_TAG_subprogram
    1493                    .dwattr $C$DW$45, DW_AT_name("testUserTwo")
    1494                    .dwattr $C$DW$45, DW_AT_low_pc(testUserTwo)
    1495                    .dwattr $C$DW$45, DW_AT_high_pc(0x00)
    1496                    .dwattr $C$DW$45, DW_AT_TI_symbol_name("testUserTwo")
    1497                    .dwattr $C$DW$45, DW_AT_external
    1498                    .dwattr $C$DW$45, DW_AT_TI_begin_file("../main.c")
    1499                    .dwattr $C$DW$45, DW_AT_TI_begin_line(0x5d)
    1500                    .dwattr $C$DW$45, DW_AT_TI_begin_column(0x06)
    1501                    .dwattr $C$DW$45, DW_AT_decl_file("../main.c")
    1502                    .dwattr $C$DW$45, DW_AT_decl_line(0x5d)
    1503                    .dwattr $C$DW$45, DW_AT_decl_column(0x06)
    1504                    .dwattr $C$DW$45, DW_AT_TI_max_frame_size(0x02)
    1505                    .dwpsn  file "../main.c",line 94,column 1,is_stmt,address testUserTwo,isa 0
    1506            
    1507                    .dwfde $C$DW$CIE, testUserTwo
    1508            
    1509            ;*****************************************************************************
    1510            ;* FUNCTION NAME: testUserTwo                                                *
    1511            ;*                                                                           *
    1512            ;*   Regs Modified     : SP,SR,r15                                           *
    1513            ;*   Regs Used         : SP,SR,r15                                           *
    1514            ;*   Local Frame Size  : 0 Args + 0 Auto + 0 Save = 0 byte                   *
    1515            ;*****************************************************************************
    1516 000000       testUserTwo:
    1517            ;* --------------------------------------------------------------------------*
    1518                    .dwcfi  cfa_offset, 2
    1519                    .dwcfi  save_reg_to_mem, 16, -2
    1520                    .dwpsn  file "../main.c",line 95,column 9,is_stmt,isa 0
    1521 000000 4382          MOV.W     #0,&m+0               ; [] |95| 
         000002 0000!
    1522                    .dwpsn  file "../main.c",line 95,column 16,is_stmt,isa 0
    1523 000004 90B2          CMP.W     #50,&m+0              ; [] |95| 
         000006 0032 
         000008 0000!
    1524 00000a 2C2F          JHS       $C$L21                ; [] |95| 
    1525                                                      ; [] |95| 
    1526            ;* --------------------------------------------------------------------------*
    1527            ;*   BEGIN LOOP $C$L15
    1528            ;*
    1529            ;*   Loop source line                : 95
MSP430 Assembler PC v20.2.2 Fri Oct 30 22:03:02 2020

Copyright (c) 2003-2018 Texas Instruments Incorporated
C:\Users\tyler\AppData\Local\Temp\{AE531C7E-F4C8-4E89-9BF9-24F4C1D7A278} PAGE   30

    1530            ;*   Loop closing brace source line  : 108
    1531            ;*   Known Minimum Trip Count        : 1
    1532            ;*   Known Maximum Trip Count        : 4294967295
    1533            ;*   Known Max Trip Count Factor     : 1
    1534            ;* --------------------------------------------------------------------------*
    1535 00000c       $C$L15:    
    1536                    .dwpsn  file "../main.c",line 96,column 9,is_stmt,isa 0
    1537 00000c 421F          MOV.W     &m+0,r15              ; [] |96| 
         00000e 0000!
    1538 000010 9FDF          CMP.B     TwoUserName+0(r15),TestUserName+0(r15) ; [] |96| 
         000012 0000!
         000014 0000!
    1539 000016 2423          JEQ       $C$L20                ; [] |96| 
    1540                                                      ; [] |96| 
    1541            ;* --------------------------------------------------------------------------*
    1542                    .dwpsn  file "../main.c",line 97,column 18,is_stmt,isa 0
    1543 000018 4382          MOV.W     #0,&n+0               ; [] |97| 
         00001a 0000!
    1544                    .dwpsn  file "../main.c",line 97,column 25,is_stmt,isa 0
    1545 00001c 90B2          CMP.W     #34,&n+0              ; [] |97| 
         00001e 0022 
         000020 0000!
    1546 000022 2C0E          JHS       $C$L17                ; [] |97| 
    1547                                                      ; [] |97| 
    1548            ;* --------------------------------------------------------------------------*
    1549                    .dwpsn  file "../main.c",line 98,column 17,is_stmt,isa 0
    1550            ;* --------------------------------------------------------------------------*
    1551            ;*   BEGIN LOOP $C$L16
    1552            ;*
    1553            ;*   Loop source line                : 98
    1554            ;*   Loop closing brace source line  : 98
    1555            ;*   Known Minimum Trip Count        : 1
    1556            ;*   Known Maximum Trip Count        : 4294967295
    1557            ;*   Known Max Trip Count Factor     : 1
    1558            ;* --------------------------------------------------------------------------*
    1559 000024       $C$L16:    
    1560                    .dwpsn  file "../main.c",line 98,column 23,is_stmt,isa 0
    1561 000024 B3E2          BIT.B     #2,&UCA0ICTL_H+0      ; [] |98| 
         000026 0000!
    1562 000028 27FD          JEQ       $C$L16                ; [] |98| 
    1563                                                      ; [] |98| 
    1564            ;* --------------------------------------------------------------------------*
    1565                    .dwpsn  file "../main.c",line 99,column 17,is_stmt,isa 0
    1566 00002a 421F          MOV.W     &n+0,r15              ; [] |99| 
         00002c 0000!
    1567 00002e 4FD2          MOV.B     IncorrectPass+0(r15),&UCA0TXBUF+0 ; [] |99| 
         000030 0000!
         000032 0000!
    1568                    .dwpsn  file "../main.c",line 97,column 52,is_stmt,isa 0
    1569 000034 5392          ADD.W     #1,&n+0               ; [] |97| 
         000036 0000!
    1570                    .dwpsn  file "../main.c",line 97,column 25,is_stmt,isa 0
    1571 000038 90B2          CMP.W     #34,&n+0              ; [] |97| 
         00003a 0022 
         00003c 0000!
MSP430 Assembler PC v20.2.2 Fri Oct 30 22:03:02 2020

Copyright (c) 2003-2018 Texas Instruments Incorporated
C:\Users\tyler\AppData\Local\Temp\{AE531C7E-F4C8-4E89-9BF9-24F4C1D7A278} PAGE   31

    1572 00003e 2BF2          JLO       $C$L16                ; [] |97| 
    1573                                                      ; [] |97| 
    1574            ;* --------------------------------------------------------------------------*
    1575 000040       $C$L17:    
    1576                    .dwpsn  file "../main.c",line 101,column 13,is_stmt,isa 0
    1577 000040 40F2          MOV.B     #10,&UCA0TXBUF+0      ; [] |101| 
         000042 000A 
         000044 0000!
    1578                    .dwpsn  file "../main.c",line 102,column 13,is_stmt,isa 0
    1579            ;* --------------------------------------------------------------------------*
    1580            ;*   BEGIN LOOP $C$L18
    1581            ;*
    1582            ;*   Loop source line                : 102
    1583            ;*   Loop closing brace source line  : 102
    1584            ;*   Known Minimum Trip Count        : 1
    1585            ;*   Known Maximum Trip Count        : 4294967295
    1586            ;*   Known Max Trip Count Factor     : 1
    1587            ;* --------------------------------------------------------------------------*
    1588 000046       $C$L18:    
    1589                    .dwpsn  file "../main.c",line 102,column 19,is_stmt,isa 0
    1590 000046 B3E2          BIT.B     #2,&UCA0ICTL_H+0      ; [] |102| 
         000048 0000!
    1591 00004a 27FD          JEQ       $C$L18                ; [] |102| 
    1592                                                      ; [] |102| 
    1593            ;* --------------------------------------------------------------------------*
    1594                    .dwpsn  file "../main.c",line 103,column 13,is_stmt,isa 0
    1595 00004c 40F2          MOV.B     #13,&UCA0TXBUF+0      ; [] |103| 
         00004e 000D 
         000050 0000!
    1596                    .dwpsn  file "../main.c",line 104,column 13,is_stmt,isa 0
    1597            ;* --------------------------------------------------------------------------*
    1598            ;*   BEGIN LOOP $C$L19
    1599            ;*
    1600            ;*   Loop source line                : 104
    1601            ;*   Loop closing brace source line  : 104
    1602            ;*   Known Minimum Trip Count        : 1
    1603            ;*   Known Maximum Trip Count        : 4294967295
    1604            ;*   Known Max Trip Count Factor     : 1
    1605            ;* --------------------------------------------------------------------------*
    1606 000052       $C$L19:    
    1607                    .dwpsn  file "../main.c",line 104,column 19,is_stmt,isa 0
    1608 000052 B3E2          BIT.B     #2,&UCA0ICTL_H+0      ; [] |104| 
         000054 0000!
    1609 000056 27FD          JEQ       $C$L19                ; [] |104| 
    1610                                                      ; [] |104| 
    1611            ;* --------------------------------------------------------------------------*
    1612                    .dwpsn  file "../main.c",line 105,column 13,is_stmt,isa 0
    1613 000058 4392          MOV.W     #1,&userIncorrect1+0  ; [] |105| 
         00005a 0000!
    1614                    .dwpsn  file "../main.c",line 106,column 13,is_stmt,isa 0
    1615 00005c 3C06          JMP       $C$L21                ; [] |106| 
    1616                                                      ; [] |106| 
    1617            ;* --------------------------------------------------------------------------*
    1618 00005e       $C$L20:    
    1619                    .dwpsn  file "../main.c",line 95,column 41,is_stmt,isa 0
MSP430 Assembler PC v20.2.2 Fri Oct 30 22:03:02 2020

Copyright (c) 2003-2018 Texas Instruments Incorporated
C:\Users\tyler\AppData\Local\Temp\{AE531C7E-F4C8-4E89-9BF9-24F4C1D7A278} PAGE   32

    1620 00005e 5392          ADD.W     #1,&m+0               ; [] |95| 
         000060 0000!
    1621                    .dwpsn  file "../main.c",line 95,column 16,is_stmt,isa 0
    1622 000062 90B2          CMP.W     #50,&m+0              ; [] |95| 
         000064 0032 
         000066 0000!
    1623 000068 2BD1          JLO       $C$L15                ; [] |95| 
    1624                                                      ; [] |95| 
    1625            ;* --------------------------------------------------------------------------*
    1626 00006a       $C$L21:    
    1627                    .dwpsn  file "../main.c",line 109,column 5,is_stmt,isa 0
    1628 00006a 9382          TST.W     &userIncorrect1+0     ; [] |109| 
         00006c 0000!
    1629 00006e 2035          JNE       $C$L28                ; [] |109| 
    1630                                                      ; [] |109| 
    1631            ;* --------------------------------------------------------------------------*
    1632                    .dwpsn  file "../main.c",line 110,column 13,is_stmt,isa 0
    1633 000070 4382          MOV.W     #0,&m+0               ; [] |110| 
         000072 0000!
    1634                    .dwpsn  file "../main.c",line 110,column 20,is_stmt,isa 0
    1635 000074 90B2          CMP.W     #50,&m+0              ; [] |110| 
         000076 0032 
         000078 0000!
    1636 00007a 2C2F          JHS       $C$L28                ; [] |110| 
    1637                                                      ; [] |110| 
    1638            ;* --------------------------------------------------------------------------*
    1639            ;*   BEGIN LOOP $C$L22
    1640            ;*
    1641            ;*   Loop source line                : 110
    1642            ;*   Loop closing brace source line  : 123
    1643            ;*   Known Minimum Trip Count        : 1
    1644            ;*   Known Maximum Trip Count        : 4294967295
    1645            ;*   Known Max Trip Count Factor     : 1
    1646            ;* --------------------------------------------------------------------------*
    1647 00007c       $C$L22:    
    1648                    .dwpsn  file "../main.c",line 111,column 13,is_stmt,isa 0
    1649 00007c 421F          MOV.W     &m+0,r15              ; [] |111| 
         00007e 0000!
    1650 000080 9FDF          CMP.B     TwoPassWord+0(r15),TestPassWord+0(r15) ; [] |111| 
         000082 0000!
         000084 0000!
    1651 000086 2423          JEQ       $C$L27                ; [] |111| 
    1652                                                      ; [] |111| 
    1653            ;* --------------------------------------------------------------------------*
    1654                    .dwpsn  file "../main.c",line 112,column 22,is_stmt,isa 0
    1655 000088 4382          MOV.W     #0,&n+0               ; [] |112| 
         00008a 0000!
    1656                    .dwpsn  file "../main.c",line 112,column 29,is_stmt,isa 0
    1657 00008c 90B2          CMP.W     #34,&n+0              ; [] |112| 
         00008e 0022 
         000090 0000!
    1658 000092 2C0E          JHS       $C$L24                ; [] |112| 
    1659                                                      ; [] |112| 
    1660            ;* --------------------------------------------------------------------------*
    1661                    .dwpsn  file "../main.c",line 113,column 21,is_stmt,isa 0
MSP430 Assembler PC v20.2.2 Fri Oct 30 22:03:02 2020

Copyright (c) 2003-2018 Texas Instruments Incorporated
C:\Users\tyler\AppData\Local\Temp\{AE531C7E-F4C8-4E89-9BF9-24F4C1D7A278} PAGE   33

    1662            ;* --------------------------------------------------------------------------*
    1663            ;*   BEGIN LOOP $C$L23
    1664            ;*
    1665            ;*   Loop source line                : 113
    1666            ;*   Loop closing brace source line  : 113
    1667            ;*   Known Minimum Trip Count        : 1
    1668            ;*   Known Maximum Trip Count        : 4294967295
    1669            ;*   Known Max Trip Count Factor     : 1
    1670            ;* --------------------------------------------------------------------------*
    1671 000094       $C$L23:    
    1672                    .dwpsn  file "../main.c",line 113,column 27,is_stmt,isa 0
    1673 000094 B3E2          BIT.B     #2,&UCA0ICTL_H+0      ; [] |113| 
         000096 0000!
    1674 000098 27FD          JEQ       $C$L23                ; [] |113| 
    1675                                                      ; [] |113| 
    1676            ;* --------------------------------------------------------------------------*
    1677                    .dwpsn  file "../main.c",line 114,column 21,is_stmt,isa 0
    1678 00009a 421F          MOV.W     &n+0,r15              ; [] |114| 
         00009c 0000!
    1679 00009e 4FD2          MOV.B     IncorrectPass+0(r15),&UCA0TXBUF+0 ; [] |114| 
         0000a0 0000!
         0000a2 0000!
    1680                    .dwpsn  file "../main.c",line 112,column 56,is_stmt,isa 0
    1681 0000a4 5392          ADD.W     #1,&n+0               ; [] |112| 
         0000a6 0000!
    1682                    .dwpsn  file "../main.c",line 112,column 29,is_stmt,isa 0
    1683 0000a8 90B2          CMP.W     #34,&n+0              ; [] |112| 
         0000aa 0022 
         0000ac 0000!
    1684 0000ae 2BF2          JLO       $C$L23                ; [] |112| 
    1685                                                      ; [] |112| 
    1686            ;* --------------------------------------------------------------------------*
    1687 0000b0       $C$L24:    
    1688                    .dwpsn  file "../main.c",line 116,column 17,is_stmt,isa 0
    1689 0000b0 40F2          MOV.B     #10,&UCA0TXBUF+0      ; [] |116| 
         0000b2 000A 
         0000b4 0000!
    1690                    .dwpsn  file "../main.c",line 117,column 17,is_stmt,isa 0
    1691            ;* --------------------------------------------------------------------------*
    1692            ;*   BEGIN LOOP $C$L25
    1693            ;*
    1694            ;*   Loop source line                : 117
    1695            ;*   Loop closing brace source line  : 117
    1696            ;*   Known Minimum Trip Count        : 1
    1697            ;*   Known Maximum Trip Count        : 4294967295
    1698            ;*   Known Max Trip Count Factor     : 1
    1699            ;* --------------------------------------------------------------------------*
    1700 0000b6       $C$L25:    
    1701                    .dwpsn  file "../main.c",line 117,column 23,is_stmt,isa 0
    1702 0000b6 B3E2          BIT.B     #2,&UCA0ICTL_H+0      ; [] |117| 
         0000b8 0000!
    1703 0000ba 27FD          JEQ       $C$L25                ; [] |117| 
    1704                                                      ; [] |117| 
    1705            ;* --------------------------------------------------------------------------*
    1706                    .dwpsn  file "../main.c",line 118,column 17,is_stmt,isa 0
MSP430 Assembler PC v20.2.2 Fri Oct 30 22:03:02 2020

Copyright (c) 2003-2018 Texas Instruments Incorporated
C:\Users\tyler\AppData\Local\Temp\{AE531C7E-F4C8-4E89-9BF9-24F4C1D7A278} PAGE   34

    1707 0000bc 40F2          MOV.B     #13,&UCA0TXBUF+0      ; [] |118| 
         0000be 000D 
         0000c0 0000!
    1708                    .dwpsn  file "../main.c",line 119,column 17,is_stmt,isa 0
    1709            ;* --------------------------------------------------------------------------*
    1710            ;*   BEGIN LOOP $C$L26
    1711            ;*
    1712            ;*   Loop source line                : 119
    1713            ;*   Loop closing brace source line  : 119
    1714            ;*   Known Minimum Trip Count        : 1
    1715            ;*   Known Maximum Trip Count        : 4294967295
    1716            ;*   Known Max Trip Count Factor     : 1
    1717            ;* --------------------------------------------------------------------------*
    1718 0000c2       $C$L26:    
    1719                    .dwpsn  file "../main.c",line 119,column 23,is_stmt,isa 0
    1720 0000c2 B3E2          BIT.B     #2,&UCA0ICTL_H+0      ; [] |119| 
         0000c4 0000!
    1721 0000c6 27FD          JEQ       $C$L26                ; [] |119| 
    1722                                                      ; [] |119| 
    1723            ;* --------------------------------------------------------------------------*
    1724                    .dwpsn  file "../main.c",line 120,column 17,is_stmt,isa 0
    1725 0000c8 4392          MOV.W     #1,&passIncorrect1+0  ; [] |120| 
         0000ca 0000!
    1726                    .dwpsn  file "../main.c",line 121,column 17,is_stmt,isa 0
    1727 0000cc 3C06          JMP       $C$L28                ; [] |121| 
    1728                                                      ; [] |121| 
    1729            ;* --------------------------------------------------------------------------*
    1730 0000ce       $C$L27:    
    1731                    .dwpsn  file "../main.c",line 110,column 45,is_stmt,isa 0
    1732 0000ce 5392          ADD.W     #1,&m+0               ; [] |110| 
         0000d0 0000!
    1733                    .dwpsn  file "../main.c",line 110,column 20,is_stmt,isa 0
    1734 0000d2 90B2          CMP.W     #50,&m+0              ; [] |110| 
         0000d4 0032 
         0000d6 0000!
    1735 0000d8 2BD1          JLO       $C$L22                ; [] |110| 
    1736                                                      ; [] |110| 
    1737            ;* --------------------------------------------------------------------------*
    1738 0000da       $C$L28:    
    1739                    .dwpsn  file "../main.c",line 125,column 5,is_stmt,isa 0
    1740 0000da 9382          TST.W     &userIncorrect1+0     ; [] |125| 
         0000dc 0000!
    1741 0000de 2023          JNE       $C$L33                ; [] |125| 
    1742                                                      ; [] |125| 
    1743            ;* --------------------------------------------------------------------------*
    1744 0000e0 9382          TST.W     &passIncorrect1+0     ; [] |125| 
         0000e2 0000!
    1745 0000e4 2020          JNE       $C$L33                ; [] |125| 
    1746                                                      ; [] |125| 
    1747            ;* --------------------------------------------------------------------------*
    1748                    .dwpsn  file "../main.c",line 126,column 14,is_stmt,isa 0
    1749 0000e6 4382          MOV.W     #0,&m+0               ; [] |126| 
         0000e8 0000!
    1750                    .dwpsn  file "../main.c",line 126,column 21,is_stmt,isa 0
    1751 0000ea 90B2          CMP.W     #22,&m+0              ; [] |126| 
MSP430 Assembler PC v20.2.2 Fri Oct 30 22:03:02 2020

Copyright (c) 2003-2018 Texas Instruments Incorporated
C:\Users\tyler\AppData\Local\Temp\{AE531C7E-F4C8-4E89-9BF9-24F4C1D7A278} PAGE   35

         0000ec 0016 
         0000ee 0000!
    1752 0000f0 2C0E          JHS       $C$L30                ; [] |126| 
    1753                                                      ; [] |126| 
    1754            ;* --------------------------------------------------------------------------*
    1755                    .dwpsn  file "../main.c",line 127,column 13,is_stmt,isa 0
    1756            ;* --------------------------------------------------------------------------*
    1757            ;*   BEGIN LOOP $C$L29
    1758            ;*
    1759            ;*   Loop source line                : 127
    1760            ;*   Loop closing brace source line  : 127
    1761            ;*   Known Minimum Trip Count        : 1
    1762            ;*   Known Maximum Trip Count        : 4294967295
    1763            ;*   Known Max Trip Count Factor     : 1
    1764            ;* --------------------------------------------------------------------------*
    1765 0000f2       $C$L29:    
    1766                    .dwpsn  file "../main.c",line 127,column 19,is_stmt,isa 0
    1767 0000f2 B3E2          BIT.B     #2,&UCA0ICTL_H+0      ; [] |127| 
         0000f4 0000!
    1768 0000f6 27FD          JEQ       $C$L29                ; [] |127| 
    1769                                                      ; [] |127| 
    1770            ;* --------------------------------------------------------------------------*
    1771                    .dwpsn  file "../main.c",line 128,column 13,is_stmt,isa 0
    1772 0000f8 421F          MOV.W     &m+0,r15              ; [] |128| 
         0000fa 0000!
    1773 0000fc 4FD2          MOV.B     CorrectPass+0(r15),&UCA0TXBUF+0 ; [] |128| 
         0000fe 0000!
         000100 0000!
    1774                    .dwpsn  file "../main.c",line 126,column 46,is_stmt,isa 0
    1775 000102 5392          ADD.W     #1,&m+0               ; [] |126| 
         000104 0000!
    1776                    .dwpsn  file "../main.c",line 126,column 21,is_stmt,isa 0
    1777 000106 90B2          CMP.W     #22,&m+0              ; [] |126| 
         000108 0016 
         00010a 0000!
    1778 00010c 2BF2          JLO       $C$L29                ; [] |126| 
    1779                                                      ; [] |126| 
    1780            ;* --------------------------------------------------------------------------*
    1781 00010e       $C$L30:    
    1782                    .dwpsn  file "../main.c",line 130,column 9,is_stmt,isa 0
    1783 00010e 40F2          MOV.B     #10,&UCA0TXBUF+0      ; [] |130| 
         000110 000A 
         000112 0000!
    1784                    .dwpsn  file "../main.c",line 131,column 9,is_stmt,isa 0
    1785            ;* --------------------------------------------------------------------------*
    1786            ;*   BEGIN LOOP $C$L31
    1787            ;*
    1788            ;*   Loop source line                : 131
    1789            ;*   Loop closing brace source line  : 131
    1790            ;*   Known Minimum Trip Count        : 1
    1791            ;*   Known Maximum Trip Count        : 4294967295
    1792            ;*   Known Max Trip Count Factor     : 1
    1793            ;* --------------------------------------------------------------------------*
    1794 000114       $C$L31:    
    1795                    .dwpsn  file "../main.c",line 131,column 15,is_stmt,isa 0
MSP430 Assembler PC v20.2.2 Fri Oct 30 22:03:02 2020

Copyright (c) 2003-2018 Texas Instruments Incorporated
C:\Users\tyler\AppData\Local\Temp\{AE531C7E-F4C8-4E89-9BF9-24F4C1D7A278} PAGE   36

    1796 000114 B3E2          BIT.B     #2,&UCA0ICTL_H+0      ; [] |131| 
         000116 0000!
    1797 000118 27FD          JEQ       $C$L31                ; [] |131| 
    1798                                                      ; [] |131| 
    1799            ;* --------------------------------------------------------------------------*
    1800                    .dwpsn  file "../main.c",line 132,column 9,is_stmt,isa 0
    1801 00011a 40F2          MOV.B     #13,&UCA0TXBUF+0      ; [] |132| 
         00011c 000D 
         00011e 0000!
    1802                    .dwpsn  file "../main.c",line 133,column 9,is_stmt,isa 0
    1803            ;* --------------------------------------------------------------------------*
    1804            ;*   BEGIN LOOP $C$L32
    1805            ;*
    1806            ;*   Loop source line                : 133
    1807            ;*   Loop closing brace source line  : 133
    1808            ;*   Known Minimum Trip Count        : 1
    1809            ;*   Known Maximum Trip Count        : 4294967295
    1810            ;*   Known Max Trip Count Factor     : 1
    1811            ;* --------------------------------------------------------------------------*
    1812 000120       $C$L32:    
    1813                    .dwpsn  file "../main.c",line 133,column 15,is_stmt,isa 0
    1814 000120 B3E2          BIT.B     #2,&UCA0ICTL_H+0      ; [] |133| 
         000122 0000!
    1815 000124 27FD          JEQ       $C$L32                ; [] |133| 
    1816                                                      ; [] |133| 
    1817            ;* --------------------------------------------------------------------------*
    1818                    .dwpsn  file "../main.c",line 135,column 1,is_stmt,isa 0
    1819            ;* --------------------------------------------------------------------------*
    1820            $C$L33:    
    1821            $C$DW$46        .dwtag  DW_TAG_TI_branch
    1822                    .dwattr $C$DW$46, DW_AT_low_pc(0x00)
    1823                    .dwattr $C$DW$46, DW_AT_TI_return
    1824            
    1825 000126 4130          RET       ; [] 
    1826                    ; [] 
    1827                    .dwattr $C$DW$45, DW_AT_TI_end_file("../main.c")
    1828                    .dwattr $C$DW$45, DW_AT_TI_end_line(0x87)
    1829                    .dwattr $C$DW$45, DW_AT_TI_end_column(0x01)
    1830                    .dwendentry
    1831                    .dwendtag $C$DW$45
    1832            
    1833 000000               .sect   ".text:main"
    1834                    .clink
    1835                    .global main
    1836            
    1837            $C$DW$47        .dwtag  DW_TAG_subprogram
    1838                    .dwattr $C$DW$47, DW_AT_name("main")
    1839                    .dwattr $C$DW$47, DW_AT_low_pc(main)
    1840                    .dwattr $C$DW$47, DW_AT_high_pc(0x00)
    1841                    .dwattr $C$DW$47, DW_AT_TI_symbol_name("main")
    1842                    .dwattr $C$DW$47, DW_AT_external
    1843                    .dwattr $C$DW$47, DW_AT_TI_begin_file("../main.c")
    1844                    .dwattr $C$DW$47, DW_AT_TI_begin_line(0x89)
    1845                    .dwattr $C$DW$47, DW_AT_TI_begin_column(0x06)
    1846                    .dwattr $C$DW$47, DW_AT_decl_file("../main.c")
MSP430 Assembler PC v20.2.2 Fri Oct 30 22:03:02 2020

Copyright (c) 2003-2018 Texas Instruments Incorporated
C:\Users\tyler\AppData\Local\Temp\{AE531C7E-F4C8-4E89-9BF9-24F4C1D7A278} PAGE   37

    1847                    .dwattr $C$DW$47, DW_AT_decl_line(0x89)
    1848                    .dwattr $C$DW$47, DW_AT_decl_column(0x06)
    1849                    .dwattr $C$DW$47, DW_AT_TI_max_frame_size(0x02)
    1850                    .dwpsn  file "../main.c",line 138,column 1,is_stmt,address main,isa 0
    1851            
    1852                    .dwfde $C$DW$CIE, main
    1853            
    1854            ;*****************************************************************************
    1855            ;* FUNCTION NAME: main                                                       *
    1856            ;*                                                                           *
    1857            ;*   Regs Modified     : SP,SR,r11,r12,r13,r14,r15                           *
    1858            ;*   Regs Used         : SP,SR,r11,r12,r13,r14,r15                           *
    1859            ;*   Local Frame Size  : 0 Args + 0 Auto + 0 Save = 0 byte                   *
    1860            ;*****************************************************************************
    1861 000000       main:
    1862            ;* --------------------------------------------------------------------------*
    1863                    .dwcfi  cfa_offset, 2
    1864                    .dwcfi  save_reg_to_mem, 16, -2
    1865                    .dwpsn  file "../main.c",line 139,column 5,is_stmt,isa 0
    1866            $C$DW$48        .dwtag  DW_TAG_TI_branch
    1867                    .dwattr $C$DW$48, DW_AT_low_pc(0x00)
    1868                    .dwattr $C$DW$48, DW_AT_name("UART_setup")
    1869                    .dwattr $C$DW$48, DW_AT_TI_call
    1870            
    1871 000000 12B0          CALL      #UART_setup           ; [] |139| 
         000002 0000!
    1872                                                      ; [] |139| 
    1873                    .dwpsn  file "../main.c",line 141,column 12,is_stmt,isa 0
    1874            ;* --------------------------------------------------------------------------*
    1875            ;*   BEGIN LOOP $C$L34
    1876            ;*
    1877            ;*   Loop source line                : 141
    1878            ;*   Loop closing brace source line  : 202
    1879            ;*   Known Minimum Trip Count        : 1
    1880            ;*   Known Maximum Trip Count        : 4294967295
    1881            ;*   Known Max Trip Count Factor     : 1
    1882            ;* --------------------------------------------------------------------------*
    1883 000004       $C$L34:    
    1884                    .dwpsn  file "../main.c",line 143,column 8,is_stmt,isa 0
    1885 000004 40B2          MOV.W     #23100,&WDTCTL+0      ; [] |143| 
         000006 5A3C 
         000008 0000!
    1886                    .dwpsn  file "../main.c",line 144,column 8,is_stmt,isa 0
    1887 00000a D392          OR.W      #1,&SFRIE1+0          ; [] |144| 
         00000c 0000!
    1888                    .dwpsn  file "../main.c",line 145,column 13,is_stmt,isa 0
    1889 00000e 4382          MOV.W     #0,&i+0               ; [] |145| 
         000010 0000!
    1890                    .dwpsn  file "../main.c",line 145,column 20,is_stmt,isa 0
    1891 000012 90B2          CMP.W     #50,&i+0              ; [] |145| 
         000014 0032 
         000016 0000!
    1892 000018 2C0E          JHS       $C$L36                ; [] |145| 
    1893                                                      ; [] |145| 
    1894            ;* --------------------------------------------------------------------------*
MSP430 Assembler PC v20.2.2 Fri Oct 30 22:03:02 2020

Copyright (c) 2003-2018 Texas Instruments Incorporated
C:\Users\tyler\AppData\Local\Temp\{AE531C7E-F4C8-4E89-9BF9-24F4C1D7A278} PAGE   38

    1895            ;*   BEGIN LOOP $C$L35
    1896            ;*
    1897            ;*   Loop source line                : 145
    1898            ;*   Loop closing brace source line  : 148
    1899            ;*   Known Minimum Trip Count        : 1
    1900            ;*   Known Maximum Trip Count        : 4294967295
    1901            ;*   Known Max Trip Count Factor     : 1
    1902            ;* --------------------------------------------------------------------------*
    1903 00001a       $C$L35:    
    1904                    .dwpsn  file "../main.c",line 146,column 13,is_stmt,isa 0
    1905 00001a 421F          MOV.W     &i+0,r15              ; [] |146| 
         00001c 0000!
    1906 00001e 40FF          MOV.B     #32,TestUserName+0(r15) ; [] |146| 
         000020 0020 
         000022 0000!
    1907                    .dwpsn  file "../main.c",line 147,column 13,is_stmt,isa 0
    1908 000024 40FF          MOV.B     #32,TestPassWord+0(r15) ; [] |147| 
         000026 0020 
         000028 0000!
    1909                    .dwpsn  file "../main.c",line 145,column 46,is_stmt,isa 0
    1910 00002a 5392          ADD.W     #1,&i+0               ; [] |145| 
         00002c 0000!
    1911                    .dwpsn  file "../main.c",line 145,column 20,is_stmt,isa 0
    1912 00002e 90B2          CMP.W     #50,&i+0              ; [] |145| 
         000030 0032 
         000032 0000!
    1913 000034 2BF2          JLO       $C$L35                ; [] |145| 
    1914                                                      ; [] |145| 
    1915            ;* --------------------------------------------------------------------------*
    1916 000036       $C$L36:    
    1917                    .dwpsn  file "../main.c",line 149,column 14,is_stmt,isa 0
    1918 000036 4382          MOV.W     #0,&i+0               ; [] |149| 
         000038 0000!
    1919                    .dwpsn  file "../main.c",line 149,column 21,is_stmt,isa 0
    1920 00003a 90B2          CMP.W     #18,&i+0              ; [] |149| 
         00003c 0012 
         00003e 0000!
    1921 000040 2C0E          JHS       $C$L38                ; [] |149| 
    1922                                                      ; [] |149| 
    1923            ;* --------------------------------------------------------------------------*
    1924                    .dwpsn  file "../main.c",line 150,column 13,is_stmt,isa 0
    1925            ;* --------------------------------------------------------------------------*
    1926            ;*   BEGIN LOOP $C$L37
    1927            ;*
    1928            ;*   Loop source line                : 150
    1929            ;*   Loop closing brace source line  : 150
    1930            ;*   Known Minimum Trip Count        : 1
    1931            ;*   Known Maximum Trip Count        : 4294967295
    1932            ;*   Known Max Trip Count Factor     : 1
    1933            ;* --------------------------------------------------------------------------*
    1934 000042       $C$L37:    
    1935                    .dwpsn  file "../main.c",line 150,column 19,is_stmt,isa 0
    1936 000042 B3E2          BIT.B     #2,&UCA0ICTL_H+0      ; [] |150| 
         000044 0000!
    1937 000046 27FD          JEQ       $C$L37                ; [] |150| 
MSP430 Assembler PC v20.2.2 Fri Oct 30 22:03:02 2020

Copyright (c) 2003-2018 Texas Instruments Incorporated
C:\Users\tyler\AppData\Local\Temp\{AE531C7E-F4C8-4E89-9BF9-24F4C1D7A278} PAGE   39

    1938                                                      ; [] |150| 
    1939            ;* --------------------------------------------------------------------------*
    1940                    .dwpsn  file "../main.c",line 152,column 13,is_stmt,isa 0
    1941 000048 421F          MOV.W     &i+0,r15              ; [] |152| 
         00004a 0000!
    1942 00004c 4FD2          MOV.B     EnterUser+0(r15),&UCA0TXBUF+0 ; [] |152| 
         00004e 0000!
         000050 0000!
    1943                    .dwpsn  file "../main.c",line 149,column 44,is_stmt,isa 0
    1944 000052 5392          ADD.W     #1,&i+0               ; [] |149| 
         000054 0000!
    1945                    .dwpsn  file "../main.c",line 149,column 21,is_stmt,isa 0
    1946 000056 90B2          CMP.W     #18,&i+0              ; [] |149| 
         000058 0012 
         00005a 0000!
    1947 00005c 2BF2          JLO       $C$L37                ; [] |149| 
    1948                                                      ; [] |149| 
    1949            ;* --------------------------------------------------------------------------*
    1950 00005e       $C$L38:    
    1951                    .dwpsn  file "../main.c",line 154,column 14,is_stmt,isa 0
    1952 00005e 4382          MOV.W     #0,&i+0               ; [] |154| 
         000060 0000!
    1953                    .dwpsn  file "../main.c",line 154,column 21,is_stmt,isa 0
    1954 000062 90B2          CMP.W     #50,&i+0              ; [] |154| 
         000064 0032 
         000066 0000!
    1955 000068 2C28          JHS       $C$L44                ; [] |154| 
    1956                                                      ; [] |154| 
    1957            ;* --------------------------------------------------------------------------*
    1958                    .dwpsn  file "../main.c",line 155,column 13,is_stmt,isa 0
    1959            ;* --------------------------------------------------------------------------*
    1960            ;*   BEGIN LOOP $C$L39
    1961            ;*
    1962            ;*   Loop source line                : 155
    1963            ;*   Loop closing brace source line  : 155
    1964            ;*   Known Minimum Trip Count        : 1
    1965            ;*   Known Maximum Trip Count        : 4294967295
    1966            ;*   Known Max Trip Count Factor     : 1
    1967            ;* --------------------------------------------------------------------------*
    1968 00006a       $C$L39:    
    1969                    .dwpsn  file "../main.c",line 155,column 19,is_stmt,isa 0
    1970 00006a B3D2          BIT.B     #1,&UCA0ICTL_H+0      ; [] |155| 
         00006c 0000!
    1971 00006e 27FD          JEQ       $C$L39                ; [] |155| 
    1972                                                      ; [] |155| 
    1973            ;* --------------------------------------------------------------------------*
    1974                    .dwpsn  file "../main.c",line 156,column 13,is_stmt,isa 0
    1975 000070 42D2          MOV.B     &UCA0RXBUF+0,&temp+0  ; [] |156| 
         000072 0000!
         000074 0000!
    1976                    .dwpsn  file "../main.c",line 157,column 13,is_stmt,isa 0
    1977 000076 90F2          CMP.B     #13,&temp+0           ; [] |157| 
         000078 000D 
         00007a 0000!
    1978 00007c 200D          JNE       $C$L42                ; [] |157| 
MSP430 Assembler PC v20.2.2 Fri Oct 30 22:03:02 2020

Copyright (c) 2003-2018 Texas Instruments Incorporated
C:\Users\tyler\AppData\Local\Temp\{AE531C7E-F4C8-4E89-9BF9-24F4C1D7A278} PAGE   40

    1979                                                      ; [] |157| 
    1980            ;* --------------------------------------------------------------------------*
    1981                    .dwpsn  file "../main.c",line 158,column 17,is_stmt,isa 0
    1982 00007e 40F2          MOV.B     #10,&UCA0TXBUF+0      ; [] |158| 
         000080 000A 
         000082 0000!
    1983                    .dwpsn  file "../main.c",line 159,column 17,is_stmt,isa 0
    1984            ;* --------------------------------------------------------------------------*
    1985            ;*   BEGIN LOOP $C$L40
    1986            ;*
    1987            ;*   Loop source line                : 159
    1988            ;*   Loop closing brace source line  : 159
    1989            ;*   Known Minimum Trip Count        : 1
    1990            ;*   Known Maximum Trip Count        : 4294967295
    1991            ;*   Known Max Trip Count Factor     : 1
    1992            ;* --------------------------------------------------------------------------*
    1993 000084       $C$L40:    
    1994                    .dwpsn  file "../main.c",line 159,column 23,is_stmt,isa 0
    1995 000084 B3E2          BIT.B     #2,&UCA0ICTL_H+0      ; [] |159| 
         000086 0000!
    1996 000088 27FD          JEQ       $C$L40                ; [] |159| 
    1997                                                      ; [] |159| 
    1998            ;* --------------------------------------------------------------------------*
    1999                    .dwpsn  file "../main.c",line 160,column 17,is_stmt,isa 0
    2000 00008a 40F2          MOV.B     #13,&UCA0TXBUF+0      ; [] |160| 
         00008c 000D 
         00008e 0000!
    2001                    .dwpsn  file "../main.c",line 161,column 17,is_stmt,isa 0
    2002            ;* --------------------------------------------------------------------------*
    2003            ;*   BEGIN LOOP $C$L41
    2004            ;*
    2005            ;*   Loop source line                : 161
    2006            ;*   Loop closing brace source line  : 161
    2007            ;*   Known Minimum Trip Count        : 1
    2008            ;*   Known Maximum Trip Count        : 4294967295
    2009            ;*   Known Max Trip Count Factor     : 1
    2010            ;* --------------------------------------------------------------------------*
    2011 000090       $C$L41:    
    2012                    .dwpsn  file "../main.c",line 161,column 23,is_stmt,isa 0
    2013 000090 B3E2          BIT.B     #2,&UCA0ICTL_H+0      ; [] |161| 
         000092 0000!
    2014 000094 27FD          JEQ       $C$L41                ; [] |161| 
    2015                                                      ; [] |161| 
    2016            ;* --------------------------------------------------------------------------*
    2017                    .dwpsn  file "../main.c",line 162,column 17,is_stmt,isa 0
    2018 000096 3C11          JMP       $C$L44                ; [] |162| 
    2019                                                      ; [] |162| 
    2020            ;* --------------------------------------------------------------------------*
    2021 000098       $C$L42:    
    2022                    .dwpsn  file "../main.c",line 165,column 17,is_stmt,isa 0
    2023 000098 421F          MOV.W     &i+0,r15              ; [] |165| 
         00009a 0000!
    2024 00009c 42DF          MOV.B     &temp+0,TestUserName+0(r15) ; [] |165| 
         00009e 0000!
         0000a0 0000!
MSP430 Assembler PC v20.2.2 Fri Oct 30 22:03:02 2020

Copyright (c) 2003-2018 Texas Instruments Incorporated
C:\Users\tyler\AppData\Local\Temp\{AE531C7E-F4C8-4E89-9BF9-24F4C1D7A278} PAGE   41

    2025                    .dwpsn  file "../main.c",line 166,column 17,is_stmt,isa 0
    2026 0000a2 4FD2          MOV.B     TestUserName+0(r15),&UCA0TXBUF+0 ; [] |166| 
         0000a4 0000!
         0000a6 0000!
    2027                    .dwpsn  file "../main.c",line 167,column 17,is_stmt,isa 0
    2028            ;* --------------------------------------------------------------------------*
    2029            ;*   BEGIN LOOP $C$L43
    2030            ;*
    2031            ;*   Loop source line                : 167
    2032            ;*   Loop closing brace source line  : 167
    2033            ;*   Known Minimum Trip Count        : 1
    2034            ;*   Known Maximum Trip Count        : 4294967295
    2035            ;*   Known Max Trip Count Factor     : 1
    2036            ;* --------------------------------------------------------------------------*
    2037 0000a8       $C$L43:    
    2038                    .dwpsn  file "../main.c",line 167,column 23,is_stmt,isa 0
    2039 0000a8 B3E2          BIT.B     #2,&UCA0ICTL_H+0      ; [] |167| 
         0000aa 0000!
    2040 0000ac 27FD          JEQ       $C$L43                ; [] |167| 
    2041                                                      ; [] |167| 
    2042            ;* --------------------------------------------------------------------------*
    2043                    .dwpsn  file "../main.c",line 154,column 47,is_stmt,isa 0
    2044 0000ae 5392          ADD.W     #1,&i+0               ; [] |154| 
         0000b0 0000!
    2045                    .dwpsn  file "../main.c",line 154,column 21,is_stmt,isa 0
    2046 0000b2 90B2          CMP.W     #50,&i+0              ; [] |154| 
         0000b4 0032 
         0000b6 0000!
    2047 0000b8 2BD8          JLO       $C$L39                ; [] |154| 
    2048                                                      ; [] |154| 
    2049            ;* --------------------------------------------------------------------------*
    2050 0000ba       $C$L44:    
    2051                    .dwpsn  file "../main.c",line 170,column 14,is_stmt,isa 0
    2052 0000ba 4382          MOV.W     #0,&i+0               ; [] |170| 
         0000bc 0000!
    2053                    .dwpsn  file "../main.c",line 170,column 21,is_stmt,isa 0
    2054 0000be 90B2          CMP.W     #18,&i+0              ; [] |170| 
         0000c0 0012 
         0000c2 0000!
    2055 0000c4 2C0E          JHS       $C$L46                ; [] |170| 
    2056                                                      ; [] |170| 
    2057            ;* --------------------------------------------------------------------------*
    2058                    .dwpsn  file "../main.c",line 171,column 13,is_stmt,isa 0
    2059            ;* --------------------------------------------------------------------------*
    2060            ;*   BEGIN LOOP $C$L45
    2061            ;*
    2062            ;*   Loop source line                : 171
    2063            ;*   Loop closing brace source line  : 171
    2064            ;*   Known Minimum Trip Count        : 1
    2065            ;*   Known Maximum Trip Count        : 4294967295
    2066            ;*   Known Max Trip Count Factor     : 1
    2067            ;* --------------------------------------------------------------------------*
    2068 0000c6       $C$L45:    
    2069                    .dwpsn  file "../main.c",line 171,column 19,is_stmt,isa 0
    2070 0000c6 B3E2          BIT.B     #2,&UCA0ICTL_H+0      ; [] |171| 
MSP430 Assembler PC v20.2.2 Fri Oct 30 22:03:02 2020

Copyright (c) 2003-2018 Texas Instruments Incorporated
C:\Users\tyler\AppData\Local\Temp\{AE531C7E-F4C8-4E89-9BF9-24F4C1D7A278} PAGE   42

         0000c8 0000!
    2071 0000ca 27FD          JEQ       $C$L45                ; [] |171| 
    2072                                                      ; [] |171| 
    2073            ;* --------------------------------------------------------------------------*
    2074                    .dwpsn  file "../main.c",line 173,column 13,is_stmt,isa 0
    2075 0000cc 421F          MOV.W     &i+0,r15              ; [] |173| 
         0000ce 0000!
    2076 0000d0 4FD2          MOV.B     EnterPass+0(r15),&UCA0TXBUF+0 ; [] |173| 
         0000d2 0000!
         0000d4 0000!
    2077                    .dwpsn  file "../main.c",line 170,column 44,is_stmt,isa 0
    2078 0000d6 5392          ADD.W     #1,&i+0               ; [] |170| 
         0000d8 0000!
    2079                    .dwpsn  file "../main.c",line 170,column 21,is_stmt,isa 0
    2080 0000da 90B2          CMP.W     #18,&i+0              ; [] |170| 
         0000dc 0012 
         0000de 0000!
    2081 0000e0 2BF2          JLO       $C$L45                ; [] |170| 
    2082                                                      ; [] |170| 
    2083            ;* --------------------------------------------------------------------------*
    2084 0000e2       $C$L46:    
    2085                    .dwpsn  file "../main.c",line 175,column 9,is_stmt,isa 0
    2086 0000e2 4382          MOV.W     #0,&enteredPassWord+0 ; [] |175| 
         0000e4 0000!
    2087                    .dwpsn  file "../main.c",line 176,column 9,is_stmt,isa 0
    2088 0000e6 4382          MOV.W     #0,&noPassWord+0      ; [] |176| 
         0000e8 0000!
    2089                    .dwpsn  file "../main.c",line 178,column 9,is_stmt,isa 0
    2090 0000ea 3C32          JMP       $C$L53                ; [] |178| 
    2091                                                      ; [] |178| 
    2092            ;* --------------------------------------------------------------------------*
    2093 0000ec       $C$L47:    
    2094                    .dwpsn  file "../main.c",line 179,column 13,is_stmt,isa 0
    2095 0000ec D032          BIS.W     #24,SR                ; [] |179| 
         0000ee 0018 
    2096                    .dwpsn  file "../main.c",line 180,column 14,is_stmt,isa 0
    2097 0000f0 4382          MOV.W     #0,&i+0               ; [] |180| 
         0000f2 0000!
    2098                    .dwpsn  file "../main.c",line 180,column 21,is_stmt,isa 0
    2099 0000f4 90B2          CMP.W     #50,&i+0              ; [] |180| 
         0000f6 0032 
         0000f8 0000!
    2100 0000fa 2C2A          JHS       $C$L53                ; [] |180| 
    2101                                                      ; [] |180| 
    2102            ;* --------------------------------------------------------------------------*
    2103                    .dwpsn  file "../main.c",line 181,column 13,is_stmt,isa 0
    2104            ;* --------------------------------------------------------------------------*
    2105            ;*   BEGIN LOOP $C$L48
    2106            ;*
    2107            ;*   Loop source line                : 181
    2108            ;*   Loop closing brace source line  : 181
    2109            ;*   Known Minimum Trip Count        : 1
    2110            ;*   Known Maximum Trip Count        : 4294967295
    2111            ;*   Known Max Trip Count Factor     : 1
    2112            ;* --------------------------------------------------------------------------*
MSP430 Assembler PC v20.2.2 Fri Oct 30 22:03:02 2020

Copyright (c) 2003-2018 Texas Instruments Incorporated
C:\Users\tyler\AppData\Local\Temp\{AE531C7E-F4C8-4E89-9BF9-24F4C1D7A278} PAGE   43

    2113 0000fc       $C$L48:    
    2114                    .dwpsn  file "../main.c",line 181,column 19,is_stmt,isa 0
    2115 0000fc B3D2          BIT.B     #1,&UCA0ICTL_H+0      ; [] |181| 
         0000fe 0000!
    2116 000100 27FD          JEQ       $C$L48                ; [] |181| 
    2117                                                      ; [] |181| 
    2118            ;* --------------------------------------------------------------------------*
    2119                    .dwpsn  file "../main.c",line 182,column 13,is_stmt,isa 0
    2120 000102 42D2          MOV.B     &UCA0RXBUF+0,&temp1+0 ; [] |182| 
         000104 0000!
         000106 0000!
    2121                    .dwpsn  file "../main.c",line 183,column 13,is_stmt,isa 0
    2122 000108 90F2          CMP.B     #13,&temp1+0          ; [] |183| 
         00010a 000D 
         00010c 0000!
    2123 00010e 200F          JNE       $C$L51                ; [] |183| 
    2124                                                      ; [] |183| 
    2125            ;* --------------------------------------------------------------------------*
    2126                    .dwpsn  file "../main.c",line 184,column 17,is_stmt,isa 0
    2127 000110 40F2          MOV.B     #10,&UCA0TXBUF+0      ; [] |184| 
         000112 000A 
         000114 0000!
    2128                    .dwpsn  file "../main.c",line 185,column 17,is_stmt,isa 0
    2129            ;* --------------------------------------------------------------------------*
    2130            ;*   BEGIN LOOP $C$L49
    2131            ;*
    2132            ;*   Loop source line                : 185
    2133            ;*   Loop closing brace source line  : 185
    2134            ;*   Known Minimum Trip Count        : 1
    2135            ;*   Known Maximum Trip Count        : 4294967295
    2136            ;*   Known Max Trip Count Factor     : 1
    2137            ;* --------------------------------------------------------------------------*
    2138 000116       $C$L49:    
    2139                    .dwpsn  file "../main.c",line 185,column 23,is_stmt,isa 0
    2140 000116 B3E2          BIT.B     #2,&UCA0ICTL_H+0      ; [] |185| 
         000118 0000!
    2141 00011a 27FD          JEQ       $C$L49                ; [] |185| 
    2142                                                      ; [] |185| 
    2143            ;* --------------------------------------------------------------------------*
    2144                    .dwpsn  file "../main.c",line 186,column 17,is_stmt,isa 0
    2145 00011c 40F2          MOV.B     #13,&UCA0TXBUF+0      ; [] |186| 
         00011e 000D 
         000120 0000!
    2146                    .dwpsn  file "../main.c",line 187,column 17,is_stmt,isa 0
    2147            ;* --------------------------------------------------------------------------*
    2148            ;*   BEGIN LOOP $C$L50
    2149            ;*
    2150            ;*   Loop source line                : 187
    2151            ;*   Loop closing brace source line  : 187
    2152            ;*   Known Minimum Trip Count        : 1
    2153            ;*   Known Maximum Trip Count        : 4294967295
    2154            ;*   Known Max Trip Count Factor     : 1
    2155            ;* --------------------------------------------------------------------------*
    2156 000122       $C$L50:    
    2157                    .dwpsn  file "../main.c",line 187,column 23,is_stmt,isa 0
MSP430 Assembler PC v20.2.2 Fri Oct 30 22:03:02 2020

Copyright (c) 2003-2018 Texas Instruments Incorporated
C:\Users\tyler\AppData\Local\Temp\{AE531C7E-F4C8-4E89-9BF9-24F4C1D7A278} PAGE   44

    2158 000122 B3E2          BIT.B     #2,&UCA0ICTL_H+0      ; [] |187| 
         000124 0000!
    2159 000126 27FD          JEQ       $C$L50                ; [] |187| 
    2160                                                      ; [] |187| 
    2161            ;* --------------------------------------------------------------------------*
    2162                    .dwpsn  file "../main.c",line 188,column 17,is_stmt,isa 0
    2163 000128 4392          MOV.W     #1,&enteredPassWord+0 ; [] |188| 
         00012a 0000!
    2164                    .dwpsn  file "../main.c",line 189,column 17,is_stmt,isa 0
    2165 00012c 3C11          JMP       $C$L53                ; [] |189| 
    2166                                                      ; [] |189| 
    2167            ;* --------------------------------------------------------------------------*
    2168 00012e       $C$L51:    
    2169                    .dwpsn  file "../main.c",line 192,column 17,is_stmt,isa 0
    2170 00012e 421F          MOV.W     &i+0,r15              ; [] |192| 
         000130 0000!
    2171 000132 42DF          MOV.B     &temp1+0,TestPassWord+0(r15) ; [] |192| 
         000134 0000!
         000136 0000!
    2172                    .dwpsn  file "../main.c",line 193,column 17,is_stmt,isa 0
    2173 000138 4FD2          MOV.B     TestPassWord+0(r15),&UCA0TXBUF+0 ; [] |193| 
         00013a 0000!
         00013c 0000!
    2174                    .dwpsn  file "../main.c",line 194,column 17,is_stmt,isa 0
    2175            ;* --------------------------------------------------------------------------*
    2176            ;*   BEGIN LOOP $C$L52
    2177            ;*
    2178            ;*   Loop source line                : 194
    2179            ;*   Loop closing brace source line  : 194
    2180            ;*   Known Minimum Trip Count        : 1
    2181            ;*   Known Maximum Trip Count        : 4294967295
    2182            ;*   Known Max Trip Count Factor     : 1
    2183            ;* --------------------------------------------------------------------------*
    2184 00013e       $C$L52:    
    2185                    .dwpsn  file "../main.c",line 194,column 23,is_stmt,isa 0
    2186 00013e B3E2          BIT.B     #2,&UCA0ICTL_H+0      ; [] |194| 
         000140 0000!
    2187 000142 27FD          JEQ       $C$L52                ; [] |194| 
    2188                                                      ; [] |194| 
    2189            ;* --------------------------------------------------------------------------*
    2190                    .dwpsn  file "../main.c",line 180,column 47,is_stmt,isa 0
    2191 000144 5392          ADD.W     #1,&i+0               ; [] |180| 
         000146 0000!
    2192                    .dwpsn  file "../main.c",line 180,column 21,is_stmt,isa 0
    2193 000148 90B2          CMP.W     #50,&i+0              ; [] |180| 
         00014a 0032 
         00014c 0000!
    2194 00014e 2BD6          JLO       $C$L48                ; [] |180| 
    2195                                                      ; [] |180| 
    2196            ;* --------------------------------------------------------------------------*
    2197            ;*   BEGIN LOOP $C$L53
    2198            ;* --------------------------------------------------------------------------*
    2199 000150       $C$L53:    
    2200                    .dwpsn  file "../main.c",line 178,column 15,is_stmt,isa 0
    2201 000150 9382          TST.W     &noPassWord+0         ; [] |178| 
MSP430 Assembler PC v20.2.2 Fri Oct 30 22:03:02 2020

Copyright (c) 2003-2018 Texas Instruments Incorporated
C:\Users\tyler\AppData\Local\Temp\{AE531C7E-F4C8-4E89-9BF9-24F4C1D7A278} PAGE   45

         000152 0000!
    2202 000154 2003          JNE       $C$L54                ; [] |178| 
    2203                                                      ; [] |178| 
    2204            ;* --------------------------------------------------------------------------*
    2205 000156 9382          TST.W     &enteredPassWord+0    ; [] |178| 
         000158 0000!
    2206 00015a 27C8          JEQ       $C$L47                ; [] |178| 
    2207                                                      ; [] |178| 
    2208            ;* --------------------------------------------------------------------------*
    2209 00015c       $C$L54:    
    2210                    .dwpsn  file "../main.c",line 198,column 9,is_stmt,isa 0
    2211 00015c 9392          CMP.W     #1,&enteredPassWord+0 ; [] |198| 
         00015e 0000!
    2212 000160 2351          JNE       $C$L34                ; [] |198| 
    2213                                                      ; [] |198| 
    2214            ;* --------------------------------------------------------------------------*
    2215                    .dwpsn  file "../main.c",line 199,column 9,is_stmt,isa 0
    2216            $C$DW$49        .dwtag  DW_TAG_TI_branch
    2217                    .dwattr $C$DW$49, DW_AT_low_pc(0x00)
    2218                    .dwattr $C$DW$49, DW_AT_name("testUserOne")
    2219                    .dwattr $C$DW$49, DW_AT_TI_call
    2220            
    2221 000162 12B0          CALL      #testUserOne          ; [] |199| 
         000164 0000!
    2222                                                      ; [] |199| 
    2223                    .dwpsn  file "../main.c",line 200,column 9,is_stmt,isa 0
    2224 000166 4382          MOV.W     #0,&enteredPassWord+0 ; [] |200| 
         000168 0000!
    2225                    .dwpsn  file "../main.c",line 141,column 12,is_stmt,isa 0
    2226 00016a 3F4C          JMP       $C$L34                ; [] |141| 
    2227                                                      ; [] |141| 
    2228 00016c 4303          NOP       ; [] 
    2229            ;* --------------------------------------------------------------------------*
    2230                    .dwattr $C$DW$47, DW_AT_TI_end_file("../main.c")
    2231                    .dwattr $C$DW$47, DW_AT_TI_end_line(0xcb)
    2232                    .dwattr $C$DW$47, DW_AT_TI_end_column(0x01)
    2233                    .dwendentry
    2234                    .dwendtag $C$DW$47
    2235            
    2236 000000               .sect   ".text:watchdog_timer"
    2237                    .clink
    2238                    .global watchdog_timer
    2239            
    2240            $C$DW$50        .dwtag  DW_TAG_subprogram
    2241                    .dwattr $C$DW$50, DW_AT_name("watchdog_timer")
    2242                    .dwattr $C$DW$50, DW_AT_low_pc(watchdog_timer)
    2243                    .dwattr $C$DW$50, DW_AT_high_pc(0x00)
    2244                    .dwattr $C$DW$50, DW_AT_TI_symbol_name("watchdog_timer")
    2245                    .dwattr $C$DW$50, DW_AT_external
    2246                    .dwattr $C$DW$50, DW_AT_TI_begin_file("../main.c")
    2247                    .dwattr $C$DW$50, DW_AT_TI_begin_line(0xcf)
    2248                    .dwattr $C$DW$50, DW_AT_TI_begin_column(0x12)
    2249                    .dwattr $C$DW$50, DW_AT_decl_file("../main.c")
    2250                    .dwattr $C$DW$50, DW_AT_decl_line(0xcf)
    2251                    .dwattr $C$DW$50, DW_AT_decl_column(0x12)
MSP430 Assembler PC v20.2.2 Fri Oct 30 22:03:02 2020

Copyright (c) 2003-2018 Texas Instruments Incorporated
C:\Users\tyler\AppData\Local\Temp\{AE531C7E-F4C8-4E89-9BF9-24F4C1D7A278} PAGE   46

    2252                    .dwattr $C$DW$50, DW_AT_TI_interrupt
    2253                    .dwattr $C$DW$50, DW_AT_TI_max_frame_size(0x0c)
    2254                    .dwpsn  file "../main.c",line 208,column 1,is_stmt,address watchdog_timer,isa 0
    2255            
    2256                    .dwfde $C$DW$CIE, watchdog_timer
    2257            
    2258            ;*****************************************************************************
    2259            ;* FUNCTION NAME: watchdog_timer                                             *
    2260            ;*                                                                           *
    2261            ;*   Regs Modified     : SP,SR,r11,r12,r13,r14,r15                           *
    2262            ;*   Regs Used         : SP,SR,r11,r12,r13,r14,r15                           *
    2263            ;*   Local Frame Size  : 0 Args + 0 Auto + 10 Save = 10 byte                 *
    2264            ;*****************************************************************************
    2265 000000       watchdog_timer:
    2266            ;* --------------------------------------------------------------------------*
    2267                    .dwcfi  cfa_offset, 2
    2268                    .dwcfi  save_reg_to_mem, 16, -2
    2269 000000 120F          PUSH.W    r15                   ; [] 
    2270                    .dwcfi  cfa_offset, 4
    2271                    .dwcfi  save_reg_to_mem, 15, -4
    2272 000002 120E          PUSH.W    r14                   ; [] 
    2273                    .dwcfi  cfa_offset, 6
    2274                    .dwcfi  save_reg_to_mem, 14, -6
    2275 000004 120D          PUSH.W    r13                   ; [] 
    2276                    .dwcfi  cfa_offset, 8
    2277                    .dwcfi  save_reg_to_mem, 13, -8
    2278 000006 120C          PUSH.W    r12                   ; [] 
    2279                    .dwcfi  cfa_offset, 10
    2280                    .dwcfi  save_reg_to_mem, 12, -10
    2281 000008 120B          PUSH.W    r11                   ; [] 
    2282                    .dwcfi  cfa_offset, 12
    2283                    .dwcfi  save_reg_to_mem, 11, -12
    2284                    .dwpsn  file "../main.c",line 209,column 5,is_stmt,isa 0
    2285            $C$DW$51        .dwtag  DW_TAG_TI_branch
    2286                    .dwattr $C$DW$51, DW_AT_low_pc(0x00)
    2287                    .dwattr $C$DW$51, DW_AT_name("SetTime")
    2288                    .dwattr $C$DW$51, DW_AT_TI_call
    2289            
    2290 00000a 12B0          CALL      #SetTime              ; [] |209| 
         00000c 0000!
    2291                                                      ; [] |209| 
    2292                    .dwpsn  file "../main.c",line 210,column 5,is_stmt,isa 0
    2293 00000e C0B1          BIC.W     #16,10(SP)            ; [] |210| 
         000010 0010 
         000012 000A 
    2294                    .dwpsn  file "../main.c",line 211,column 1,is_stmt,isa 0
    2295 000014 413B          POP       r11                   ; [] 
    2296                    .dwcfi  restore_reg, 11
    2297                    .dwcfi  cfa_offset, 10
    2298 000016 413C          POP       r12                   ; [] 
    2299                    .dwcfi  restore_reg, 12
    2300                    .dwcfi  cfa_offset, 8
    2301 000018 413D          POP       r13                   ; [] 
    2302                    .dwcfi  restore_reg, 13
    2303                    .dwcfi  cfa_offset, 6
MSP430 Assembler PC v20.2.2 Fri Oct 30 22:03:02 2020

Copyright (c) 2003-2018 Texas Instruments Incorporated
C:\Users\tyler\AppData\Local\Temp\{AE531C7E-F4C8-4E89-9BF9-24F4C1D7A278} PAGE   47

    2304 00001a 413E          POP       r14                   ; [] 
    2305                    .dwcfi  restore_reg, 14
    2306                    .dwcfi  cfa_offset, 4
    2307 00001c 413F          POP       r15                   ; [] 
    2308                    .dwcfi  restore_reg, 15
    2309                    .dwcfi  cfa_offset, 2
    2310            $C$DW$52        .dwtag  DW_TAG_TI_branch
    2311                    .dwattr $C$DW$52, DW_AT_low_pc(0x00)
    2312                    .dwattr $C$DW$52, DW_AT_TI_return
    2313            
    2314 00001e 1300          RETI      ; [] 
    2315                    ; [] 
    2316                    .dwattr $C$DW$50, DW_AT_TI_end_file("../main.c")
    2317                    .dwattr $C$DW$50, DW_AT_TI_end_line(0xd3)
    2318                    .dwattr $C$DW$50, DW_AT_TI_end_column(0x01)
    2319                    .dwendentry
    2320                    .dwendtag $C$DW$50
    2321            
    2322            ;*****************************************************************************
    2323            ;* UNDEFINED EXTERNAL REFERENCES                                             *
    2324            ;*****************************************************************************
    2325                    .global PBSEL_L
    2326                    .global SFRIE1
    2327                    .global UCA0CTLW0_L
    2328                    .global UCA0CTLW0_H
    2329                    .global UCA0BRW_L
    2330                    .global UCA0BRW_H
    2331                    .global UCA0MCTL
    2332                    .global UCA0RXBUF
    2333                    .global UCA0TXBUF
    2334                    .global UCA0ICTL_H
    2335                    .global WDTCTL
    2336            
    2337            ;******************************************************************************
    2338            ;* BUILD ATTRIBUTES                                                           *
    2339            ;******************************************************************************
    2340                    .battr "TI", Tag_File, 1, Tag_LPM_INFO(2)
    2341                    .battr "TI", Tag_File, 1, Tag_PORTS_INIT_INFO("012345678901ABCDEFGHIJ0000000000001111000000000
    2342                    .battr "TI", Tag_File, 1, Tag_LEA_INFO(1)
    2343                    .battr "TI", Tag_File, 1, Tag_HW_MPY32_INFO(2)
    2344                    .battr "TI", Tag_File, 1, Tag_HW_MPY_ISR_INFO(3)
    2345                    .battr "TI", Tag_File, 1, Tag_HW_MPY_INLINE_INFO(1)
    2346                    .battr "mspabi", Tag_File, 1, Tag_enum_size(3)
    2347            
    2348            ;******************************************************************************
    2349            ;* TYPE INFORMATION                                                           *
    2350            ;******************************************************************************
    2351            
    2352            $C$DW$T$21      .dwtag  DW_TAG_structure_type
    2353                    .dwattr $C$DW$T$21, DW_AT_byte_size(0x10)
    2354            $C$DW$53        .dwtag  DW_TAG_member
    2355                    .dwattr $C$DW$53, DW_AT_type(*$C$DW$T$14)
    2356                    .dwattr $C$DW$53, DW_AT_name("__max_align1")
    2357                    .dwattr $C$DW$53, DW_AT_TI_symbol_name("__max_align1")
    2358                    .dwattr $C$DW$53, DW_AT_data_member_location[DW_OP_plus_uconst 0x0]
MSP430 Assembler PC v20.2.2 Fri Oct 30 22:03:02 2020

Copyright (c) 2003-2018 Texas Instruments Incorporated
C:\Users\tyler\AppData\Local\Temp\{AE531C7E-F4C8-4E89-9BF9-24F4C1D7A278} PAGE   48

    2359                    .dwattr $C$DW$53, DW_AT_accessibility(DW_ACCESS_public)
    2360                    .dwattr $C$DW$53, DW_AT_decl_file("C:/ti/ccs1010/ccs/tools/compiler/ti-cgt-msp430_20.2.2.LTS/i
    2361                    .dwattr $C$DW$53, DW_AT_decl_line(0x7b)
    2362                    .dwattr $C$DW$53, DW_AT_decl_column(0x0c)
    2363            
    2364            $C$DW$54        .dwtag  DW_TAG_member
    2365                    .dwattr $C$DW$54, DW_AT_type(*$C$DW$T$18)
    2366                    .dwattr $C$DW$54, DW_AT_name("__max_align2")
    2367                    .dwattr $C$DW$54, DW_AT_TI_symbol_name("__max_align2")
    2368                    .dwattr $C$DW$54, DW_AT_data_member_location[DW_OP_plus_uconst 0x8]
    2369                    .dwattr $C$DW$54, DW_AT_accessibility(DW_ACCESS_public)
    2370                    .dwattr $C$DW$54, DW_AT_decl_file("C:/ti/ccs1010/ccs/tools/compiler/ti-cgt-msp430_20.2.2.LTS/i
    2371                    .dwattr $C$DW$54, DW_AT_decl_line(0x7c)
    2372                    .dwattr $C$DW$54, DW_AT_decl_column(0x0e)
    2373            
    2374                    .dwattr $C$DW$T$21, DW_AT_decl_file("C:/ti/ccs1010/ccs/tools/compiler/ti-cgt-msp430_20.2.2.LTS
    2375                    .dwattr $C$DW$T$21, DW_AT_decl_line(0x7a)
    2376                    .dwattr $C$DW$T$21, DW_AT_decl_column(0x10)
    2377                    .dwendtag $C$DW$T$21
    2378            
    2379            $C$DW$T$24      .dwtag  DW_TAG_typedef
    2380                    .dwattr $C$DW$T$24, DW_AT_name("__max_align_t")
    2381                    .dwattr $C$DW$T$24, DW_AT_type(*$C$DW$T$21)
    2382                    .dwattr $C$DW$T$24, DW_AT_language(DW_LANG_C)
    2383                    .dwattr $C$DW$T$24, DW_AT_decl_file("C:/ti/ccs1010/ccs/tools/compiler/ti-cgt-msp430_20.2.2.LTS
    2384                    .dwattr $C$DW$T$24, DW_AT_decl_line(0x7d)
    2385                    .dwattr $C$DW$T$24, DW_AT_decl_column(0x03)
    2386            
    2387            $C$DW$T$2       .dwtag  DW_TAG_unspecified_type
    2388                    .dwattr $C$DW$T$2, DW_AT_name("void")
    2389            
    2390            
    2391            $C$DW$T$27      .dwtag  DW_TAG_subroutine_type
    2392                    .dwattr $C$DW$T$27, DW_AT_language(DW_LANG_C)
    2393                    .dwendtag $C$DW$T$27
    2394            
    2395            $C$DW$T$28      .dwtag  DW_TAG_pointer_type
    2396                    .dwattr $C$DW$T$28, DW_AT_type(*$C$DW$T$27)
    2397                    .dwattr $C$DW$T$28, DW_AT_address_class(0x10)
    2398            
    2399            $C$DW$T$29      .dwtag  DW_TAG_typedef
    2400                    .dwattr $C$DW$T$29, DW_AT_name("__SFR_FARPTR")
    2401                    .dwattr $C$DW$T$29, DW_AT_type(*$C$DW$T$28)
    2402                    .dwattr $C$DW$T$29, DW_AT_language(DW_LANG_C)
    2403                    .dwattr $C$DW$T$29, DW_AT_decl_file("C:\ti\ccs1010\ccs\ccs_base\msp430\include\msp430f5529.h")
    2404                    .dwattr $C$DW$T$29, DW_AT_decl_line(0x4a)
    2405                    .dwattr $C$DW$T$29, DW_AT_decl_column(0x11)
    2406            
    2407            $C$DW$T$4       .dwtag  DW_TAG_base_type
    2408                    .dwattr $C$DW$T$4, DW_AT_encoding(DW_ATE_boolean)
    2409                    .dwattr $C$DW$T$4, DW_AT_name("bool")
    2410                    .dwattr $C$DW$T$4, DW_AT_byte_size(0x01)
    2411            
    2412            $C$DW$T$5       .dwtag  DW_TAG_base_type
    2413                    .dwattr $C$DW$T$5, DW_AT_encoding(DW_ATE_signed_char)
MSP430 Assembler PC v20.2.2 Fri Oct 30 22:03:02 2020

Copyright (c) 2003-2018 Texas Instruments Incorporated
C:\Users\tyler\AppData\Local\Temp\{AE531C7E-F4C8-4E89-9BF9-24F4C1D7A278} PAGE   49

    2414                    .dwattr $C$DW$T$5, DW_AT_name("signed char")
    2415                    .dwattr $C$DW$T$5, DW_AT_byte_size(0x01)
    2416            
    2417            $C$DW$T$30      .dwtag  DW_TAG_typedef
    2418                    .dwattr $C$DW$T$30, DW_AT_name("__int8_t")
    2419                    .dwattr $C$DW$T$30, DW_AT_type(*$C$DW$T$5)
    2420                    .dwattr $C$DW$T$30, DW_AT_language(DW_LANG_C)
    2421                    .dwattr $C$DW$T$30, DW_AT_decl_file("C:/ti/ccs1010/ccs/tools/compiler/ti-cgt-msp430_20.2.2.LTS
    2422                    .dwattr $C$DW$T$30, DW_AT_decl_line(0x36)
    2423                    .dwattr $C$DW$T$30, DW_AT_decl_column(0x16)
    2424            
    2425            $C$DW$T$31      .dwtag  DW_TAG_typedef
    2426                    .dwattr $C$DW$T$31, DW_AT_name("__int_least8_t")
    2427                    .dwattr $C$DW$T$31, DW_AT_type(*$C$DW$T$30)
    2428                    .dwattr $C$DW$T$31, DW_AT_language(DW_LANG_C)
    2429                    .dwattr $C$DW$T$31, DW_AT_decl_file("C:/ti/ccs1010/ccs/tools/compiler/ti-cgt-msp430_20.2.2.LTS
    2430                    .dwattr $C$DW$T$31, DW_AT_decl_line(0x5a)
    2431                    .dwattr $C$DW$T$31, DW_AT_decl_column(0x12)
    2432            
    2433            $C$DW$T$32      .dwtag  DW_TAG_typedef
    2434                    .dwattr $C$DW$T$32, DW_AT_name("int_least8_t")
    2435                    .dwattr $C$DW$T$32, DW_AT_type(*$C$DW$T$31)
    2436                    .dwattr $C$DW$T$32, DW_AT_language(DW_LANG_C)
    2437                    .dwattr $C$DW$T$32, DW_AT_decl_file("C:/ti/ccs1010/ccs/tools/compiler/ti-cgt-msp430_20.2.2.LTS
    2438                    .dwattr $C$DW$T$32, DW_AT_decl_line(0x2a)
    2439                    .dwattr $C$DW$T$32, DW_AT_decl_column(0x19)
    2440            
    2441            $C$DW$T$33      .dwtag  DW_TAG_typedef
    2442                    .dwattr $C$DW$T$33, DW_AT_name("int8_t")
    2443                    .dwattr $C$DW$T$33, DW_AT_type(*$C$DW$T$30)
    2444                    .dwattr $C$DW$T$33, DW_AT_language(DW_LANG_C)
    2445                    .dwattr $C$DW$T$33, DW_AT_decl_file("C:/ti/ccs1010/ccs/tools/compiler/ti-cgt-msp430_20.2.2.LTS
    2446                    .dwattr $C$DW$T$33, DW_AT_decl_line(0x25)
    2447                    .dwattr $C$DW$T$33, DW_AT_decl_column(0x13)
    2448            
    2449            $C$DW$T$6       .dwtag  DW_TAG_base_type
    2450                    .dwattr $C$DW$T$6, DW_AT_encoding(DW_ATE_unsigned_char)
    2451                    .dwattr $C$DW$T$6, DW_AT_name("unsigned char")
    2452                    .dwattr $C$DW$T$6, DW_AT_byte_size(0x01)
    2453            
    2454            $C$DW$T$22      .dwtag  DW_TAG_pointer_type
    2455                    .dwattr $C$DW$T$22, DW_AT_type(*$C$DW$T$6)
    2456                    .dwattr $C$DW$T$22, DW_AT_address_class(0x10)
    2457            
    2458            $C$DW$T$34      .dwtag  DW_TAG_volatile_type
    2459                    .dwattr $C$DW$T$34, DW_AT_type(*$C$DW$T$6)
    2460            
    2461            $C$DW$T$35      .dwtag  DW_TAG_typedef
    2462                    .dwattr $C$DW$T$35, DW_AT_name("__uint8_t")
    2463                    .dwattr $C$DW$T$35, DW_AT_type(*$C$DW$T$6)
    2464                    .dwattr $C$DW$T$35, DW_AT_language(DW_LANG_C)
    2465                    .dwattr $C$DW$T$35, DW_AT_decl_file("C:/ti/ccs1010/ccs/tools/compiler/ti-cgt-msp430_20.2.2.LTS
    2466                    .dwattr $C$DW$T$35, DW_AT_decl_line(0x37)
    2467                    .dwattr $C$DW$T$35, DW_AT_decl_column(0x18)
    2468            
MSP430 Assembler PC v20.2.2 Fri Oct 30 22:03:02 2020

Copyright (c) 2003-2018 Texas Instruments Incorporated
C:\Users\tyler\AppData\Local\Temp\{AE531C7E-F4C8-4E89-9BF9-24F4C1D7A278} PAGE   50

    2469            $C$DW$T$36      .dwtag  DW_TAG_typedef
    2470                    .dwattr $C$DW$T$36, DW_AT_name("__sa_family_t")
    2471                    .dwattr $C$DW$T$36, DW_AT_type(*$C$DW$T$35)
    2472                    .dwattr $C$DW$T$36, DW_AT_language(DW_LANG_C)
    2473                    .dwattr $C$DW$T$36, DW_AT_decl_file("C:/ti/ccs1010/ccs/tools/compiler/ti-cgt-msp430_20.2.2.LTS
    2474                    .dwattr $C$DW$T$36, DW_AT_decl_line(0x47)
    2475                    .dwattr $C$DW$T$36, DW_AT_decl_column(0x13)
    2476            
    2477            $C$DW$T$37      .dwtag  DW_TAG_typedef
    2478                    .dwattr $C$DW$T$37, DW_AT_name("__uint_least8_t")
    2479                    .dwattr $C$DW$T$37, DW_AT_type(*$C$DW$T$35)
    2480                    .dwattr $C$DW$T$37, DW_AT_language(DW_LANG_C)
    2481                    .dwattr $C$DW$T$37, DW_AT_decl_file("C:/ti/ccs1010/ccs/tools/compiler/ti-cgt-msp430_20.2.2.LTS
    2482                    .dwattr $C$DW$T$37, DW_AT_decl_line(0x74)
    2483                    .dwattr $C$DW$T$37, DW_AT_decl_column(0x13)
    2484            
    2485            $C$DW$T$38      .dwtag  DW_TAG_typedef
    2486                    .dwattr $C$DW$T$38, DW_AT_name("uint_least8_t")
    2487                    .dwattr $C$DW$T$38, DW_AT_type(*$C$DW$T$37)
    2488                    .dwattr $C$DW$T$38, DW_AT_language(DW_LANG_C)
    2489                    .dwattr $C$DW$T$38, DW_AT_decl_file("C:/ti/ccs1010/ccs/tools/compiler/ti-cgt-msp430_20.2.2.LTS
    2490                    .dwattr $C$DW$T$38, DW_AT_decl_line(0x2f)
    2491                    .dwattr $C$DW$T$38, DW_AT_decl_column(0x1a)
    2492            
    2493            $C$DW$T$39      .dwtag  DW_TAG_typedef
    2494                    .dwattr $C$DW$T$39, DW_AT_name("uint8_t")
    2495                    .dwattr $C$DW$T$39, DW_AT_type(*$C$DW$T$35)
    2496                    .dwattr $C$DW$T$39, DW_AT_language(DW_LANG_C)
    2497                    .dwattr $C$DW$T$39, DW_AT_decl_file("C:/ti/ccs1010/ccs/tools/compiler/ti-cgt-msp430_20.2.2.LTS
    2498                    .dwattr $C$DW$T$39, DW_AT_decl_line(0x3b)
    2499                    .dwattr $C$DW$T$39, DW_AT_decl_column(0x14)
    2500            
    2501            $C$DW$T$7       .dwtag  DW_TAG_base_type
    2502                    .dwattr $C$DW$T$7, DW_AT_encoding(DW_ATE_signed_char)
    2503                    .dwattr $C$DW$T$7, DW_AT_name("wchar_t")
    2504                    .dwattr $C$DW$T$7, DW_AT_byte_size(0x02)
    2505            
    2506            $C$DW$T$8       .dwtag  DW_TAG_base_type
    2507                    .dwattr $C$DW$T$8, DW_AT_encoding(DW_ATE_signed)
    2508                    .dwattr $C$DW$T$8, DW_AT_name("short")
    2509                    .dwattr $C$DW$T$8, DW_AT_byte_size(0x02)
    2510            
    2511            $C$DW$T$9       .dwtag  DW_TAG_base_type
    2512                    .dwattr $C$DW$T$9, DW_AT_encoding(DW_ATE_unsigned)
    2513                    .dwattr $C$DW$T$9, DW_AT_name("unsigned short")
    2514                    .dwattr $C$DW$T$9, DW_AT_byte_size(0x02)
    2515            
    2516            $C$DW$T$10      .dwtag  DW_TAG_base_type
    2517                    .dwattr $C$DW$T$10, DW_AT_encoding(DW_ATE_signed)
    2518                    .dwattr $C$DW$T$10, DW_AT_name("int")
    2519                    .dwattr $C$DW$T$10, DW_AT_byte_size(0x02)
    2520            
    2521            $C$DW$T$40      .dwtag  DW_TAG_typedef
    2522                    .dwattr $C$DW$T$40, DW_AT_name("_Mbstatet")
    2523                    .dwattr $C$DW$T$40, DW_AT_type(*$C$DW$T$10)
MSP430 Assembler PC v20.2.2 Fri Oct 30 22:03:02 2020

Copyright (c) 2003-2018 Texas Instruments Incorporated
C:\Users\tyler\AppData\Local\Temp\{AE531C7E-F4C8-4E89-9BF9-24F4C1D7A278} PAGE   51

    2524                    .dwattr $C$DW$T$40, DW_AT_language(DW_LANG_C)
    2525                    .dwattr $C$DW$T$40, DW_AT_decl_file("C:/ti/ccs1010/ccs/tools/compiler/ti-cgt-msp430_20.2.2.LTS
    2526                    .dwattr $C$DW$T$40, DW_AT_decl_line(0x8f)
    2527                    .dwattr $C$DW$T$40, DW_AT_decl_column(0x0d)
    2528            
    2529            $C$DW$T$41      .dwtag  DW_TAG_typedef
    2530                    .dwattr $C$DW$T$41, DW_AT_name("__mbstate_t")
    2531                    .dwattr $C$DW$T$41, DW_AT_type(*$C$DW$T$40)
    2532                    .dwattr $C$DW$T$41, DW_AT_language(DW_LANG_C)
    2533                    .dwattr $C$DW$T$41, DW_AT_decl_file("C:/ti/ccs1010/ccs/tools/compiler/ti-cgt-msp430_20.2.2.LTS
    2534                    .dwattr $C$DW$T$41, DW_AT_decl_line(0x92)
    2535                    .dwattr $C$DW$T$41, DW_AT_decl_column(0x13)
    2536            
    2537            $C$DW$T$42      .dwtag  DW_TAG_typedef
    2538                    .dwattr $C$DW$T$42, DW_AT_name("__accmode_t")
    2539                    .dwattr $C$DW$T$42, DW_AT_type(*$C$DW$T$10)
    2540                    .dwattr $C$DW$T$42, DW_AT_language(DW_LANG_C)
    2541                    .dwattr $C$DW$T$42, DW_AT_decl_file("C:/ti/ccs1010/ccs/tools/compiler/ti-cgt-msp430_20.2.2.LTS
    2542                    .dwattr $C$DW$T$42, DW_AT_decl_line(0x3b)
    2543                    .dwattr $C$DW$T$42, DW_AT_decl_column(0x0e)
    2544            
    2545            $C$DW$T$45      .dwtag  DW_TAG_typedef
    2546                    .dwattr $C$DW$T$45, DW_AT_name("__cpulevel_t")
    2547                    .dwattr $C$DW$T$45, DW_AT_type(*$C$DW$T$10)
    2548                    .dwattr $C$DW$T$45, DW_AT_language(DW_LANG_C)
    2549                    .dwattr $C$DW$T$45, DW_AT_decl_file("C:/ti/ccs1010/ccs/tools/compiler/ti-cgt-msp430_20.2.2.LTS
    2550                    .dwattr $C$DW$T$45, DW_AT_decl_line(0x50)
    2551                    .dwattr $C$DW$T$45, DW_AT_decl_column(0x0e)
    2552            
    2553            $C$DW$T$46      .dwtag  DW_TAG_typedef
    2554                    .dwattr $C$DW$T$46, DW_AT_name("__cpusetid_t")
    2555                    .dwattr $C$DW$T$46, DW_AT_type(*$C$DW$T$10)
    2556                    .dwattr $C$DW$T$46, DW_AT_language(DW_LANG_C)
    2557                    .dwattr $C$DW$T$46, DW_AT_decl_file("C:/ti/ccs1010/ccs/tools/compiler/ti-cgt-msp430_20.2.2.LTS
    2558                    .dwattr $C$DW$T$46, DW_AT_decl_line(0x51)
    2559                    .dwattr $C$DW$T$46, DW_AT_decl_column(0x0e)
    2560            
    2561            $C$DW$T$47      .dwtag  DW_TAG_typedef
    2562                    .dwattr $C$DW$T$47, DW_AT_name("__cpuwhich_t")
    2563                    .dwattr $C$DW$T$47, DW_AT_type(*$C$DW$T$10)
    2564                    .dwattr $C$DW$T$47, DW_AT_language(DW_LANG_C)
    2565                    .dwattr $C$DW$T$47, DW_AT_decl_file("C:/ti/ccs1010/ccs/tools/compiler/ti-cgt-msp430_20.2.2.LTS
    2566                    .dwattr $C$DW$T$47, DW_AT_decl_line(0x4f)
    2567                    .dwattr $C$DW$T$47, DW_AT_decl_column(0x0e)
    2568            
    2569            $C$DW$T$48      .dwtag  DW_TAG_typedef
    2570                    .dwattr $C$DW$T$48, DW_AT_name("__ct_rune_t")
    2571                    .dwattr $C$DW$T$48, DW_AT_type(*$C$DW$T$10)
    2572                    .dwattr $C$DW$T$48, DW_AT_language(DW_LANG_C)
    2573                    .dwattr $C$DW$T$48, DW_AT_decl_file("C:/ti/ccs1010/ccs/tools/compiler/ti-cgt-msp430_20.2.2.LTS
    2574                    .dwattr $C$DW$T$48, DW_AT_decl_line(0x69)
    2575                    .dwattr $C$DW$T$48, DW_AT_decl_column(0x0e)
    2576            
    2577            $C$DW$T$49      .dwtag  DW_TAG_typedef
    2578                    .dwattr $C$DW$T$49, DW_AT_name("__rune_t")
MSP430 Assembler PC v20.2.2 Fri Oct 30 22:03:02 2020

Copyright (c) 2003-2018 Texas Instruments Incorporated
C:\Users\tyler\AppData\Local\Temp\{AE531C7E-F4C8-4E89-9BF9-24F4C1D7A278} PAGE   52

    2579                    .dwattr $C$DW$T$49, DW_AT_type(*$C$DW$T$48)
    2580                    .dwattr $C$DW$T$49, DW_AT_language(DW_LANG_C)
    2581                    .dwattr $C$DW$T$49, DW_AT_decl_file("C:/ti/ccs1010/ccs/tools/compiler/ti-cgt-msp430_20.2.2.LTS
    2582                    .dwattr $C$DW$T$49, DW_AT_decl_line(0x6c)
    2583                    .dwattr $C$DW$T$49, DW_AT_decl_column(0x15)
    2584            
    2585            $C$DW$T$50      .dwtag  DW_TAG_typedef
    2586                    .dwattr $C$DW$T$50, DW_AT_name("__wint_t")
    2587                    .dwattr $C$DW$T$50, DW_AT_type(*$C$DW$T$48)
    2588                    .dwattr $C$DW$T$50, DW_AT_language(DW_LANG_C)
    2589                    .dwattr $C$DW$T$50, DW_AT_decl_file("C:/ti/ccs1010/ccs/tools/compiler/ti-cgt-msp430_20.2.2.LTS
    2590                    .dwattr $C$DW$T$50, DW_AT_decl_line(0x6d)
    2591                    .dwattr $C$DW$T$50, DW_AT_decl_column(0x15)
    2592            
    2593            $C$DW$T$51      .dwtag  DW_TAG_typedef
    2594                    .dwattr $C$DW$T$51, DW_AT_name("__int16_t")
    2595                    .dwattr $C$DW$T$51, DW_AT_type(*$C$DW$T$10)
    2596                    .dwattr $C$DW$T$51, DW_AT_language(DW_LANG_C)
    2597                    .dwattr $C$DW$T$51, DW_AT_decl_file("C:/ti/ccs1010/ccs/tools/compiler/ti-cgt-msp430_20.2.2.LTS
    2598                    .dwattr $C$DW$T$51, DW_AT_decl_line(0x38)
    2599                    .dwattr $C$DW$T$51, DW_AT_decl_column(0x0f)
    2600            
    2601            $C$DW$T$52      .dwtag  DW_TAG_typedef
    2602                    .dwattr $C$DW$T$52, DW_AT_name("__int_fast16_t")
    2603                    .dwattr $C$DW$T$52, DW_AT_type(*$C$DW$T$51)
    2604                    .dwattr $C$DW$T$52, DW_AT_language(DW_LANG_C)
    2605                    .dwattr $C$DW$T$52, DW_AT_decl_file("C:/ti/ccs1010/ccs/tools/compiler/ti-cgt-msp430_20.2.2.LTS
    2606                    .dwattr $C$DW$T$52, DW_AT_decl_line(0x57)
    2607                    .dwattr $C$DW$T$52, DW_AT_decl_column(0x13)
    2608            
    2609            $C$DW$T$53      .dwtag  DW_TAG_typedef
    2610                    .dwattr $C$DW$T$53, DW_AT_name("int_fast16_t")
    2611                    .dwattr $C$DW$T$53, DW_AT_type(*$C$DW$T$52)
    2612                    .dwattr $C$DW$T$53, DW_AT_language(DW_LANG_C)
    2613                    .dwattr $C$DW$T$53, DW_AT_decl_file("C:/ti/ccs1010/ccs/tools/compiler/ti-cgt-msp430_20.2.2.LTS
    2614                    .dwattr $C$DW$T$53, DW_AT_decl_line(0x35)
    2615                    .dwattr $C$DW$T$53, DW_AT_decl_column(0x19)
    2616            
    2617            $C$DW$T$54      .dwtag  DW_TAG_typedef
    2618                    .dwattr $C$DW$T$54, DW_AT_name("__int_fast8_t")
    2619                    .dwattr $C$DW$T$54, DW_AT_type(*$C$DW$T$51)
    2620                    .dwattr $C$DW$T$54, DW_AT_language(DW_LANG_C)
    2621                    .dwattr $C$DW$T$54, DW_AT_decl_file("C:/ti/ccs1010/ccs/tools/compiler/ti-cgt-msp430_20.2.2.LTS
    2622                    .dwattr $C$DW$T$54, DW_AT_decl_line(0x56)
    2623                    .dwattr $C$DW$T$54, DW_AT_decl_column(0x13)
    2624            
    2625            $C$DW$T$55      .dwtag  DW_TAG_typedef
    2626                    .dwattr $C$DW$T$55, DW_AT_name("int_fast8_t")
    2627                    .dwattr $C$DW$T$55, DW_AT_type(*$C$DW$T$54)
    2628                    .dwattr $C$DW$T$55, DW_AT_language(DW_LANG_C)
    2629                    .dwattr $C$DW$T$55, DW_AT_decl_file("C:/ti/ccs1010/ccs/tools/compiler/ti-cgt-msp430_20.2.2.LTS
    2630                    .dwattr $C$DW$T$55, DW_AT_decl_line(0x34)
    2631                    .dwattr $C$DW$T$55, DW_AT_decl_column(0x18)
    2632            
    2633            $C$DW$T$56      .dwtag  DW_TAG_typedef
MSP430 Assembler PC v20.2.2 Fri Oct 30 22:03:02 2020

Copyright (c) 2003-2018 Texas Instruments Incorporated
C:\Users\tyler\AppData\Local\Temp\{AE531C7E-F4C8-4E89-9BF9-24F4C1D7A278} PAGE   53

    2634                    .dwattr $C$DW$T$56, DW_AT_name("__int_least16_t")
    2635                    .dwattr $C$DW$T$56, DW_AT_type(*$C$DW$T$51)
    2636                    .dwattr $C$DW$T$56, DW_AT_language(DW_LANG_C)
    2637                    .dwattr $C$DW$T$56, DW_AT_decl_file("C:/ti/ccs1010/ccs/tools/compiler/ti-cgt-msp430_20.2.2.LTS
    2638                    .dwattr $C$DW$T$56, DW_AT_decl_line(0x5b)
    2639                    .dwattr $C$DW$T$56, DW_AT_decl_column(0x13)
    2640            
    2641            $C$DW$T$57      .dwtag  DW_TAG_typedef
    2642                    .dwattr $C$DW$T$57, DW_AT_name("int_least16_t")
    2643                    .dwattr $C$DW$T$57, DW_AT_type(*$C$DW$T$56)
    2644                    .dwattr $C$DW$T$57, DW_AT_language(DW_LANG_C)
    2645                    .dwattr $C$DW$T$57, DW_AT_decl_file("C:/ti/ccs1010/ccs/tools/compiler/ti-cgt-msp430_20.2.2.LTS
    2646                    .dwattr $C$DW$T$57, DW_AT_decl_line(0x2b)
    2647                    .dwattr $C$DW$T$57, DW_AT_decl_column(0x1a)
    2648            
    2649            $C$DW$T$58      .dwtag  DW_TAG_typedef
    2650                    .dwattr $C$DW$T$58, DW_AT_name("__intptr_t")
    2651                    .dwattr $C$DW$T$58, DW_AT_type(*$C$DW$T$51)
    2652                    .dwattr $C$DW$T$58, DW_AT_language(DW_LANG_C)
    2653                    .dwattr $C$DW$T$58, DW_AT_decl_file("C:/ti/ccs1010/ccs/tools/compiler/ti-cgt-msp430_20.2.2.LTS
    2654                    .dwattr $C$DW$T$58, DW_AT_decl_line(0x53)
    2655                    .dwattr $C$DW$T$58, DW_AT_decl_column(0x19)
    2656            
    2657            $C$DW$T$59      .dwtag  DW_TAG_typedef
    2658                    .dwattr $C$DW$T$59, DW_AT_name("intptr_t")
    2659                    .dwattr $C$DW$T$59, DW_AT_type(*$C$DW$T$58)
    2660                    .dwattr $C$DW$T$59, DW_AT_language(DW_LANG_C)
    2661                    .dwattr $C$DW$T$59, DW_AT_decl_file("C:/ti/ccs1010/ccs/tools/compiler/ti-cgt-msp430_20.2.2.LTS
    2662                    .dwattr $C$DW$T$59, DW_AT_decl_line(0x50)
    2663                    .dwattr $C$DW$T$59, DW_AT_decl_column(0x15)
    2664            
    2665            $C$DW$T$60      .dwtag  DW_TAG_typedef
    2666                    .dwattr $C$DW$T$60, DW_AT_name("__register_t")
    2667                    .dwattr $C$DW$T$60, DW_AT_type(*$C$DW$T$51)
    2668                    .dwattr $C$DW$T$60, DW_AT_language(DW_LANG_C)
    2669                    .dwattr $C$DW$T$60, DW_AT_decl_file("C:/ti/ccs1010/ccs/tools/compiler/ti-cgt-msp430_20.2.2.LTS
    2670                    .dwattr $C$DW$T$60, DW_AT_decl_line(0x5f)
    2671                    .dwattr $C$DW$T$60, DW_AT_decl_column(0x13)
    2672            
    2673            $C$DW$T$61      .dwtag  DW_TAG_typedef
    2674                    .dwattr $C$DW$T$61, DW_AT_name("int16_t")
    2675                    .dwattr $C$DW$T$61, DW_AT_type(*$C$DW$T$51)
    2676                    .dwattr $C$DW$T$61, DW_AT_language(DW_LANG_C)
    2677                    .dwattr $C$DW$T$61, DW_AT_decl_file("C:/ti/ccs1010/ccs/tools/compiler/ti-cgt-msp430_20.2.2.LTS
    2678                    .dwattr $C$DW$T$61, DW_AT_decl_line(0x2b)
    2679                    .dwattr $C$DW$T$61, DW_AT_decl_column(0x14)
    2680            
    2681            $C$DW$T$62      .dwtag  DW_TAG_typedef
    2682                    .dwattr $C$DW$T$62, DW_AT_name("__nl_item")
    2683                    .dwattr $C$DW$T$62, DW_AT_type(*$C$DW$T$10)
    2684                    .dwattr $C$DW$T$62, DW_AT_language(DW_LANG_C)
    2685                    .dwattr $C$DW$T$62, DW_AT_decl_file("C:/ti/ccs1010/ccs/tools/compiler/ti-cgt-msp430_20.2.2.LTS
    2686                    .dwattr $C$DW$T$62, DW_AT_decl_line(0x3c)
    2687                    .dwattr $C$DW$T$62, DW_AT_decl_column(0x0e)
    2688            
MSP430 Assembler PC v20.2.2 Fri Oct 30 22:03:02 2020

Copyright (c) 2003-2018 Texas Instruments Incorporated
C:\Users\tyler\AppData\Local\Temp\{AE531C7E-F4C8-4E89-9BF9-24F4C1D7A278} PAGE   54

    2689            $C$DW$T$63      .dwtag  DW_TAG_typedef
    2690                    .dwattr $C$DW$T$63, DW_AT_name("__ptrdiff_t")
    2691                    .dwattr $C$DW$T$63, DW_AT_type(*$C$DW$T$10)
    2692                    .dwattr $C$DW$T$63, DW_AT_language(DW_LANG_C)
    2693                    .dwattr $C$DW$T$63, DW_AT_decl_file("C:/ti/ccs1010/ccs/tools/compiler/ti-cgt-msp430_20.2.2.LTS
    2694                    .dwattr $C$DW$T$63, DW_AT_decl_line(0x5e)
    2695                    .dwattr $C$DW$T$63, DW_AT_decl_column(0x1c)
    2696            
    2697            $C$DW$T$11      .dwtag  DW_TAG_base_type
    2698                    .dwattr $C$DW$T$11, DW_AT_encoding(DW_ATE_unsigned)
    2699                    .dwattr $C$DW$T$11, DW_AT_name("unsigned int")
    2700                    .dwattr $C$DW$T$11, DW_AT_byte_size(0x02)
    2701            
    2702            $C$DW$T$64      .dwtag  DW_TAG_typedef
    2703                    .dwattr $C$DW$T$64, DW_AT_name("___wchar_t")
    2704                    .dwattr $C$DW$T$64, DW_AT_type(*$C$DW$T$11)
    2705                    .dwattr $C$DW$T$64, DW_AT_language(DW_LANG_C)
    2706                    .dwattr $C$DW$T$64, DW_AT_decl_file("C:/ti/ccs1010/ccs/tools/compiler/ti-cgt-msp430_20.2.2.LTS
    2707                    .dwattr $C$DW$T$64, DW_AT_decl_line(0x7d)
    2708                    .dwattr $C$DW$T$64, DW_AT_decl_column(0x1a)
    2709            
    2710            $C$DW$T$65      .dwtag  DW_TAG_volatile_type
    2711                    .dwattr $C$DW$T$65, DW_AT_type(*$C$DW$T$11)
    2712            
    2713            $C$DW$T$66      .dwtag  DW_TAG_typedef
    2714                    .dwattr $C$DW$T$66, DW_AT_name("__size_t")
    2715                    .dwattr $C$DW$T$66, DW_AT_type(*$C$DW$T$11)
    2716                    .dwattr $C$DW$T$66, DW_AT_language(DW_LANG_C)
    2717                    .dwattr $C$DW$T$66, DW_AT_decl_file("C:/ti/ccs1010/ccs/tools/compiler/ti-cgt-msp430_20.2.2.LTS
    2718                    .dwattr $C$DW$T$66, DW_AT_decl_line(0x61)
    2719                    .dwattr $C$DW$T$66, DW_AT_decl_column(0x19)
    2720            
    2721            $C$DW$T$67      .dwtag  DW_TAG_typedef
    2722                    .dwattr $C$DW$T$67, DW_AT_name("__uint16_t")
    2723                    .dwattr $C$DW$T$67, DW_AT_type(*$C$DW$T$11)
    2724                    .dwattr $C$DW$T$67, DW_AT_language(DW_LANG_C)
    2725                    .dwattr $C$DW$T$67, DW_AT_decl_file("C:/ti/ccs1010/ccs/tools/compiler/ti-cgt-msp430_20.2.2.LTS
    2726                    .dwattr $C$DW$T$67, DW_AT_decl_line(0x39)
    2727                    .dwattr $C$DW$T$67, DW_AT_decl_column(0x17)
    2728            
    2729            $C$DW$T$68      .dwtag  DW_TAG_typedef
    2730                    .dwattr $C$DW$T$68, DW_AT_name("__mode_t")
    2731                    .dwattr $C$DW$T$68, DW_AT_type(*$C$DW$T$67)
    2732                    .dwattr $C$DW$T$68, DW_AT_language(DW_LANG_C)
    2733                    .dwattr $C$DW$T$68, DW_AT_decl_file("C:/ti/ccs1010/ccs/tools/compiler/ti-cgt-msp430_20.2.2.LTS
    2734                    .dwattr $C$DW$T$68, DW_AT_decl_line(0x3a)
    2735                    .dwattr $C$DW$T$68, DW_AT_decl_column(0x14)
    2736            
    2737            $C$DW$T$69      .dwtag  DW_TAG_typedef
    2738                    .dwattr $C$DW$T$69, DW_AT_name("__u_register_t")
    2739                    .dwattr $C$DW$T$69, DW_AT_type(*$C$DW$T$67)
    2740                    .dwattr $C$DW$T$69, DW_AT_language(DW_LANG_C)
    2741                    .dwattr $C$DW$T$69, DW_AT_decl_file("C:/ti/ccs1010/ccs/tools/compiler/ti-cgt-msp430_20.2.2.LTS
    2742                    .dwattr $C$DW$T$69, DW_AT_decl_line(0x78)
    2743                    .dwattr $C$DW$T$69, DW_AT_decl_column(0x14)
MSP430 Assembler PC v20.2.2 Fri Oct 30 22:03:02 2020

Copyright (c) 2003-2018 Texas Instruments Incorporated
C:\Users\tyler\AppData\Local\Temp\{AE531C7E-F4C8-4E89-9BF9-24F4C1D7A278} PAGE   55

    2744            
    2745            $C$DW$T$70      .dwtag  DW_TAG_typedef
    2746                    .dwattr $C$DW$T$70, DW_AT_name("__uint_fast16_t")
    2747                    .dwattr $C$DW$T$70, DW_AT_type(*$C$DW$T$67)
    2748                    .dwattr $C$DW$T$70, DW_AT_language(DW_LANG_C)
    2749                    .dwattr $C$DW$T$70, DW_AT_decl_file("C:/ti/ccs1010/ccs/tools/compiler/ti-cgt-msp430_20.2.2.LTS
    2750                    .dwattr $C$DW$T$70, DW_AT_decl_line(0x71)
    2751                    .dwattr $C$DW$T$70, DW_AT_decl_column(0x14)
    2752            
    2753            $C$DW$T$71      .dwtag  DW_TAG_typedef
    2754                    .dwattr $C$DW$T$71, DW_AT_name("uint_fast16_t")
    2755                    .dwattr $C$DW$T$71, DW_AT_type(*$C$DW$T$70)
    2756                    .dwattr $C$DW$T$71, DW_AT_language(DW_LANG_C)
    2757                    .dwattr $C$DW$T$71, DW_AT_decl_file("C:/ti/ccs1010/ccs/tools/compiler/ti-cgt-msp430_20.2.2.LTS
    2758                    .dwattr $C$DW$T$71, DW_AT_decl_line(0x3a)
    2759                    .dwattr $C$DW$T$71, DW_AT_decl_column(0x1a)
    2760            
    2761            $C$DW$T$72      .dwtag  DW_TAG_typedef
    2762                    .dwattr $C$DW$T$72, DW_AT_name("__uint_fast8_t")
    2763                    .dwattr $C$DW$T$72, DW_AT_type(*$C$DW$T$67)
    2764                    .dwattr $C$DW$T$72, DW_AT_language(DW_LANG_C)
    2765                    .dwattr $C$DW$T$72, DW_AT_decl_file("C:/ti/ccs1010/ccs/tools/compiler/ti-cgt-msp430_20.2.2.LTS
    2766                    .dwattr $C$DW$T$72, DW_AT_decl_line(0x70)
    2767                    .dwattr $C$DW$T$72, DW_AT_decl_column(0x14)
    2768            
    2769            $C$DW$T$73      .dwtag  DW_TAG_typedef
    2770                    .dwattr $C$DW$T$73, DW_AT_name("uint_fast8_t")
    2771                    .dwattr $C$DW$T$73, DW_AT_type(*$C$DW$T$72)
    2772                    .dwattr $C$DW$T$73, DW_AT_language(DW_LANG_C)
    2773                    .dwattr $C$DW$T$73, DW_AT_decl_file("C:/ti/ccs1010/ccs/tools/compiler/ti-cgt-msp430_20.2.2.LTS
    2774                    .dwattr $C$DW$T$73, DW_AT_decl_line(0x39)
    2775                    .dwattr $C$DW$T$73, DW_AT_decl_column(0x19)
    2776            
    2777            $C$DW$T$74      .dwtag  DW_TAG_typedef
    2778                    .dwattr $C$DW$T$74, DW_AT_name("__uint_least16_t")
    2779                    .dwattr $C$DW$T$74, DW_AT_type(*$C$DW$T$67)
    2780                    .dwattr $C$DW$T$74, DW_AT_language(DW_LANG_C)
    2781                    .dwattr $C$DW$T$74, DW_AT_decl_file("C:/ti/ccs1010/ccs/tools/compiler/ti-cgt-msp430_20.2.2.LTS
    2782                    .dwattr $C$DW$T$74, DW_AT_decl_line(0x75)
    2783                    .dwattr $C$DW$T$74, DW_AT_decl_column(0x14)
    2784            
    2785            $C$DW$T$75      .dwtag  DW_TAG_typedef
    2786                    .dwattr $C$DW$T$75, DW_AT_name("__char16_t")
    2787                    .dwattr $C$DW$T$75, DW_AT_type(*$C$DW$T$74)
    2788                    .dwattr $C$DW$T$75, DW_AT_language(DW_LANG_C)
    2789                    .dwattr $C$DW$T$75, DW_AT_decl_file("C:/ti/ccs1010/ccs/tools/compiler/ti-cgt-msp430_20.2.2.LTS
    2790                    .dwattr $C$DW$T$75, DW_AT_decl_line(0x71)
    2791                    .dwattr $C$DW$T$75, DW_AT_decl_column(0x1a)
    2792            
    2793            $C$DW$T$76      .dwtag  DW_TAG_typedef
    2794                    .dwattr $C$DW$T$76, DW_AT_name("uint_least16_t")
    2795                    .dwattr $C$DW$T$76, DW_AT_type(*$C$DW$T$74)
    2796                    .dwattr $C$DW$T$76, DW_AT_language(DW_LANG_C)
    2797                    .dwattr $C$DW$T$76, DW_AT_decl_file("C:/ti/ccs1010/ccs/tools/compiler/ti-cgt-msp430_20.2.2.LTS
    2798                    .dwattr $C$DW$T$76, DW_AT_decl_line(0x30)
MSP430 Assembler PC v20.2.2 Fri Oct 30 22:03:02 2020

Copyright (c) 2003-2018 Texas Instruments Incorporated
C:\Users\tyler\AppData\Local\Temp\{AE531C7E-F4C8-4E89-9BF9-24F4C1D7A278} PAGE   56

    2799                    .dwattr $C$DW$T$76, DW_AT_decl_column(0x1a)
    2800            
    2801            $C$DW$T$77      .dwtag  DW_TAG_typedef
    2802                    .dwattr $C$DW$T$77, DW_AT_name("__uintptr_t")
    2803                    .dwattr $C$DW$T$77, DW_AT_type(*$C$DW$T$67)
    2804                    .dwattr $C$DW$T$77, DW_AT_language(DW_LANG_C)
    2805                    .dwattr $C$DW$T$77, DW_AT_decl_file("C:/ti/ccs1010/ccs/tools/compiler/ti-cgt-msp430_20.2.2.LTS
    2806                    .dwattr $C$DW$T$77, DW_AT_decl_line(0x6d)
    2807                    .dwattr $C$DW$T$77, DW_AT_decl_column(0x14)
    2808            
    2809            $C$DW$T$78      .dwtag  DW_TAG_typedef
    2810                    .dwattr $C$DW$T$78, DW_AT_name("uintptr_t")
    2811                    .dwattr $C$DW$T$78, DW_AT_type(*$C$DW$T$77)
    2812                    .dwattr $C$DW$T$78, DW_AT_language(DW_LANG_C)
    2813                    .dwattr $C$DW$T$78, DW_AT_decl_file("C:/ti/ccs1010/ccs/tools/compiler/ti-cgt-msp430_20.2.2.LTS
    2814                    .dwattr $C$DW$T$78, DW_AT_decl_line(0x54)
    2815                    .dwattr $C$DW$T$78, DW_AT_decl_column(0x16)
    2816            
    2817            $C$DW$T$79      .dwtag  DW_TAG_typedef
    2818                    .dwattr $C$DW$T$79, DW_AT_name("uint16_t")
    2819                    .dwattr $C$DW$T$79, DW_AT_type(*$C$DW$T$67)
    2820                    .dwattr $C$DW$T$79, DW_AT_language(DW_LANG_C)
    2821                    .dwattr $C$DW$T$79, DW_AT_decl_file("C:/ti/ccs1010/ccs/tools/compiler/ti-cgt-msp430_20.2.2.LTS
    2822                    .dwattr $C$DW$T$79, DW_AT_decl_line(0x41)
    2823                    .dwattr $C$DW$T$79, DW_AT_decl_column(0x15)
    2824            
    2825            $C$DW$T$80      .dwtag  DW_TAG_typedef
    2826                    .dwattr $C$DW$T$80, DW_AT_name("__useconds_t")
    2827                    .dwattr $C$DW$T$80, DW_AT_type(*$C$DW$T$11)
    2828                    .dwattr $C$DW$T$80, DW_AT_language(DW_LANG_C)
    2829                    .dwattr $C$DW$T$80, DW_AT_decl_file("C:/ti/ccs1010/ccs/tools/compiler/ti-cgt-msp430_20.2.2.LTS
    2830                    .dwattr $C$DW$T$80, DW_AT_decl_line(0x4e)
    2831                    .dwattr $C$DW$T$80, DW_AT_decl_column(0x16)
    2832            
    2833            $C$DW$T$81      .dwtag  DW_TAG_typedef
    2834                    .dwattr $C$DW$T$81, DW_AT_name("size_t")
    2835                    .dwattr $C$DW$T$81, DW_AT_type(*$C$DW$T$11)
    2836                    .dwattr $C$DW$T$81, DW_AT_language(DW_LANG_C)
    2837                    .dwattr $C$DW$T$81, DW_AT_decl_file("C:/ti/ccs1010/ccs/tools/compiler/ti-cgt-msp430_20.2.2.LTS
    2838                    .dwattr $C$DW$T$81, DW_AT_decl_line(0x4d)
    2839                    .dwattr $C$DW$T$81, DW_AT_decl_column(0x19)
    2840            
    2841            $C$DW$T$12      .dwtag  DW_TAG_base_type
    2842                    .dwattr $C$DW$T$12, DW_AT_encoding(DW_ATE_signed)
    2843                    .dwattr $C$DW$T$12, DW_AT_name("long")
    2844                    .dwattr $C$DW$T$12, DW_AT_byte_size(0x04)
    2845            
    2846            $C$DW$T$82      .dwtag  DW_TAG_typedef
    2847                    .dwattr $C$DW$T$82, DW_AT_name("__int32_t")
    2848                    .dwattr $C$DW$T$82, DW_AT_type(*$C$DW$T$12)
    2849                    .dwattr $C$DW$T$82, DW_AT_language(DW_LANG_C)
    2850                    .dwattr $C$DW$T$82, DW_AT_decl_file("C:/ti/ccs1010/ccs/tools/compiler/ti-cgt-msp430_20.2.2.LTS
    2851                    .dwattr $C$DW$T$82, DW_AT_decl_line(0x3a)
    2852                    .dwattr $C$DW$T$82, DW_AT_decl_column(0x10)
    2853            
MSP430 Assembler PC v20.2.2 Fri Oct 30 22:03:02 2020

Copyright (c) 2003-2018 Texas Instruments Incorporated
C:\Users\tyler\AppData\Local\Temp\{AE531C7E-F4C8-4E89-9BF9-24F4C1D7A278} PAGE   57

    2854            $C$DW$T$83      .dwtag  DW_TAG_typedef
    2855                    .dwattr $C$DW$T$83, DW_AT_name("__blksize_t")
    2856                    .dwattr $C$DW$T$83, DW_AT_type(*$C$DW$T$82)
    2857                    .dwattr $C$DW$T$83, DW_AT_language(DW_LANG_C)
    2858                    .dwattr $C$DW$T$83, DW_AT_decl_file("C:/ti/ccs1010/ccs/tools/compiler/ti-cgt-msp430_20.2.2.LTS
    2859                    .dwattr $C$DW$T$83, DW_AT_decl_line(0x2f)
    2860                    .dwattr $C$DW$T$83, DW_AT_decl_column(0x13)
    2861            
    2862            $C$DW$T$84      .dwtag  DW_TAG_typedef
    2863                    .dwattr $C$DW$T$84, DW_AT_name("__clockid_t")
    2864                    .dwattr $C$DW$T$84, DW_AT_type(*$C$DW$T$82)
    2865                    .dwattr $C$DW$T$84, DW_AT_language(DW_LANG_C)
    2866                    .dwattr $C$DW$T$84, DW_AT_decl_file("C:/ti/ccs1010/ccs/tools/compiler/ti-cgt-msp430_20.2.2.LTS
    2867                    .dwattr $C$DW$T$84, DW_AT_decl_line(0x31)
    2868                    .dwattr $C$DW$T$84, DW_AT_decl_column(0x13)
    2869            
    2870            $C$DW$T$85      .dwtag  DW_TAG_typedef
    2871                    .dwattr $C$DW$T$85, DW_AT_name("__critical_t")
    2872                    .dwattr $C$DW$T$85, DW_AT_type(*$C$DW$T$82)
    2873                    .dwattr $C$DW$T$85, DW_AT_language(DW_LANG_C)
    2874                    .dwattr $C$DW$T$85, DW_AT_decl_file("C:/ti/ccs1010/ccs/tools/compiler/ti-cgt-msp430_20.2.2.LTS
    2875                    .dwattr $C$DW$T$85, DW_AT_decl_line(0x4b)
    2876                    .dwattr $C$DW$T$85, DW_AT_decl_column(0x13)
    2877            
    2878            $C$DW$T$86      .dwtag  DW_TAG_typedef
    2879                    .dwattr $C$DW$T$86, DW_AT_name("__int_fast32_t")
    2880                    .dwattr $C$DW$T$86, DW_AT_type(*$C$DW$T$82)
    2881                    .dwattr $C$DW$T$86, DW_AT_language(DW_LANG_C)
    2882                    .dwattr $C$DW$T$86, DW_AT_decl_file("C:/ti/ccs1010/ccs/tools/compiler/ti-cgt-msp430_20.2.2.LTS
    2883                    .dwattr $C$DW$T$86, DW_AT_decl_line(0x58)
    2884                    .dwattr $C$DW$T$86, DW_AT_decl_column(0x13)
    2885            
    2886            $C$DW$T$87      .dwtag  DW_TAG_typedef
    2887                    .dwattr $C$DW$T$87, DW_AT_name("int_fast32_t")
    2888                    .dwattr $C$DW$T$87, DW_AT_type(*$C$DW$T$86)
    2889                    .dwattr $C$DW$T$87, DW_AT_language(DW_LANG_C)
    2890                    .dwattr $C$DW$T$87, DW_AT_decl_file("C:/ti/ccs1010/ccs/tools/compiler/ti-cgt-msp430_20.2.2.LTS
    2891                    .dwattr $C$DW$T$87, DW_AT_decl_line(0x36)
    2892                    .dwattr $C$DW$T$87, DW_AT_decl_column(0x19)
    2893            
    2894            $C$DW$T$88      .dwtag  DW_TAG_typedef
    2895                    .dwattr $C$DW$T$88, DW_AT_name("__int_least32_t")
    2896                    .dwattr $C$DW$T$88, DW_AT_type(*$C$DW$T$82)
    2897                    .dwattr $C$DW$T$88, DW_AT_language(DW_LANG_C)
    2898                    .dwattr $C$DW$T$88, DW_AT_decl_file("C:/ti/ccs1010/ccs/tools/compiler/ti-cgt-msp430_20.2.2.LTS
    2899                    .dwattr $C$DW$T$88, DW_AT_decl_line(0x5c)
    2900                    .dwattr $C$DW$T$88, DW_AT_decl_column(0x13)
    2901            
    2902            $C$DW$T$89      .dwtag  DW_TAG_typedef
    2903                    .dwattr $C$DW$T$89, DW_AT_name("int_least32_t")
    2904                    .dwattr $C$DW$T$89, DW_AT_type(*$C$DW$T$88)
    2905                    .dwattr $C$DW$T$89, DW_AT_language(DW_LANG_C)
    2906                    .dwattr $C$DW$T$89, DW_AT_decl_file("C:/ti/ccs1010/ccs/tools/compiler/ti-cgt-msp430_20.2.2.LTS
    2907                    .dwattr $C$DW$T$89, DW_AT_decl_line(0x2c)
    2908                    .dwattr $C$DW$T$89, DW_AT_decl_column(0x1a)
MSP430 Assembler PC v20.2.2 Fri Oct 30 22:03:02 2020

Copyright (c) 2003-2018 Texas Instruments Incorporated
C:\Users\tyler\AppData\Local\Temp\{AE531C7E-F4C8-4E89-9BF9-24F4C1D7A278} PAGE   58

    2909            
    2910            $C$DW$T$90      .dwtag  DW_TAG_typedef
    2911                    .dwattr $C$DW$T$90, DW_AT_name("__intfptr_t")
    2912                    .dwattr $C$DW$T$90, DW_AT_type(*$C$DW$T$82)
    2913                    .dwattr $C$DW$T$90, DW_AT_language(DW_LANG_C)
    2914                    .dwattr $C$DW$T$90, DW_AT_decl_file("C:/ti/ccs1010/ccs/tools/compiler/ti-cgt-msp430_20.2.2.LTS
    2915                    .dwattr $C$DW$T$90, DW_AT_decl_line(0x4e)
    2916                    .dwattr $C$DW$T$90, DW_AT_decl_column(0x13)
    2917            
    2918            $C$DW$T$91      .dwtag  DW_TAG_typedef
    2919                    .dwattr $C$DW$T$91, DW_AT_name("__lwpid_t")
    2920                    .dwattr $C$DW$T$91, DW_AT_type(*$C$DW$T$82)
    2921                    .dwattr $C$DW$T$91, DW_AT_language(DW_LANG_C)
    2922                    .dwattr $C$DW$T$91, DW_AT_decl_file("C:/ti/ccs1010/ccs/tools/compiler/ti-cgt-msp430_20.2.2.LTS
    2923                    .dwattr $C$DW$T$91, DW_AT_decl_line(0x39)
    2924                    .dwattr $C$DW$T$91, DW_AT_decl_column(0x13)
    2925            
    2926            $C$DW$T$92      .dwtag  DW_TAG_typedef
    2927                    .dwattr $C$DW$T$92, DW_AT_name("__pid_t")
    2928                    .dwattr $C$DW$T$92, DW_AT_type(*$C$DW$T$82)
    2929                    .dwattr $C$DW$T$92, DW_AT_language(DW_LANG_C)
    2930                    .dwattr $C$DW$T$92, DW_AT_decl_file("C:/ti/ccs1010/ccs/tools/compiler/ti-cgt-msp430_20.2.2.LTS
    2931                    .dwattr $C$DW$T$92, DW_AT_decl_line(0x40)
    2932                    .dwattr $C$DW$T$92, DW_AT_decl_column(0x13)
    2933            
    2934            $C$DW$T$93      .dwtag  DW_TAG_typedef
    2935                    .dwattr $C$DW$T$93, DW_AT_name("__segsz_t")
    2936                    .dwattr $C$DW$T$93, DW_AT_type(*$C$DW$T$82)
    2937                    .dwattr $C$DW$T$93, DW_AT_language(DW_LANG_C)
    2938                    .dwattr $C$DW$T$93, DW_AT_decl_file("C:/ti/ccs1010/ccs/tools/compiler/ti-cgt-msp430_20.2.2.LTS
    2939                    .dwattr $C$DW$T$93, DW_AT_decl_line(0x60)
    2940                    .dwattr $C$DW$T$93, DW_AT_decl_column(0x13)
    2941            
    2942            $C$DW$T$94      .dwtag  DW_TAG_typedef
    2943                    .dwattr $C$DW$T$94, DW_AT_name("__ssize_t")
    2944                    .dwattr $C$DW$T$94, DW_AT_type(*$C$DW$T$82)
    2945                    .dwattr $C$DW$T$94, DW_AT_language(DW_LANG_C)
    2946                    .dwattr $C$DW$T$94, DW_AT_decl_file("C:/ti/ccs1010/ccs/tools/compiler/ti-cgt-msp430_20.2.2.LTS
    2947                    .dwattr $C$DW$T$94, DW_AT_decl_line(0x62)
    2948                    .dwattr $C$DW$T$94, DW_AT_decl_column(0x13)
    2949            
    2950            $C$DW$T$95      .dwtag  DW_TAG_typedef
    2951                    .dwattr $C$DW$T$95, DW_AT_name("int32_t")
    2952                    .dwattr $C$DW$T$95, DW_AT_type(*$C$DW$T$82)
    2953                    .dwattr $C$DW$T$95, DW_AT_language(DW_LANG_C)
    2954                    .dwattr $C$DW$T$95, DW_AT_decl_file("C:/ti/ccs1010/ccs/tools/compiler/ti-cgt-msp430_20.2.2.LTS
    2955                    .dwattr $C$DW$T$95, DW_AT_decl_line(0x30)
    2956                    .dwattr $C$DW$T$95, DW_AT_decl_column(0x14)
    2957            
    2958            $C$DW$T$96      .dwtag  DW_TAG_typedef
    2959                    .dwattr $C$DW$T$96, DW_AT_name("__key_t")
    2960                    .dwattr $C$DW$T$96, DW_AT_type(*$C$DW$T$12)
    2961                    .dwattr $C$DW$T$96, DW_AT_language(DW_LANG_C)
    2962                    .dwattr $C$DW$T$96, DW_AT_decl_file("C:/ti/ccs1010/ccs/tools/compiler/ti-cgt-msp430_20.2.2.LTS
    2963                    .dwattr $C$DW$T$96, DW_AT_decl_line(0x38)
MSP430 Assembler PC v20.2.2 Fri Oct 30 22:03:02 2020

Copyright (c) 2003-2018 Texas Instruments Incorporated
C:\Users\tyler\AppData\Local\Temp\{AE531C7E-F4C8-4E89-9BF9-24F4C1D7A278} PAGE   59

    2964                    .dwattr $C$DW$T$96, DW_AT_decl_column(0x0f)
    2965            
    2966            $C$DW$T$97      .dwtag  DW_TAG_typedef
    2967                    .dwattr $C$DW$T$97, DW_AT_name("__suseconds_t")
    2968                    .dwattr $C$DW$T$97, DW_AT_type(*$C$DW$T$12)
    2969                    .dwattr $C$DW$T$97, DW_AT_language(DW_LANG_C)
    2970                    .dwattr $C$DW$T$97, DW_AT_decl_file("C:/ti/ccs1010/ccs/tools/compiler/ti-cgt-msp430_20.2.2.LTS
    2971                    .dwattr $C$DW$T$97, DW_AT_decl_line(0x4a)
    2972                    .dwattr $C$DW$T$97, DW_AT_decl_column(0x0f)
    2973            
    2974            $C$DW$T$98      .dwtag  DW_TAG_typedef
    2975                    .dwattr $C$DW$T$98, DW_AT_name("_off_t")
    2976                    .dwattr $C$DW$T$98, DW_AT_type(*$C$DW$T$12)
    2977                    .dwattr $C$DW$T$98, DW_AT_language(DW_LANG_C)
    2978                    .dwattr $C$DW$T$98, DW_AT_decl_file("C:/ti/ccs1010/ccs/tools/compiler/ti-cgt-msp430_20.2.2.LTS
    2979                    .dwattr $C$DW$T$98, DW_AT_decl_line(0x8d)
    2980                    .dwattr $C$DW$T$98, DW_AT_decl_column(0x12)
    2981            
    2982            $C$DW$T$99      .dwtag  DW_TAG_typedef
    2983                    .dwattr $C$DW$T$99, DW_AT_name("__off_t")
    2984                    .dwattr $C$DW$T$99, DW_AT_type(*$C$DW$T$98)
    2985                    .dwattr $C$DW$T$99, DW_AT_language(DW_LANG_C)
    2986                    .dwattr $C$DW$T$99, DW_AT_decl_file("C:/ti/ccs1010/ccs/tools/compiler/ti-cgt-msp430_20.2.2.LTS
    2987                    .dwattr $C$DW$T$99, DW_AT_decl_line(0x3e)
    2988                    .dwattr $C$DW$T$99, DW_AT_decl_column(0x18)
    2989            
    2990            $C$DW$T$100     .dwtag  DW_TAG_typedef
    2991                    .dwattr $C$DW$T$100, DW_AT_name("fpos_t")
    2992                    .dwattr $C$DW$T$100, DW_AT_type(*$C$DW$T$12)
    2993                    .dwattr $C$DW$T$100, DW_AT_language(DW_LANG_C)
    2994                    .dwattr $C$DW$T$100, DW_AT_decl_file("C:/ti/ccs1010/ccs/tools/compiler/ti-cgt-msp430_20.2.2.LT
    2995                    .dwattr $C$DW$T$100, DW_AT_decl_line(0x6b)
    2996                    .dwattr $C$DW$T$100, DW_AT_decl_column(0x0e)
    2997            
    2998            $C$DW$T$13      .dwtag  DW_TAG_base_type
    2999                    .dwattr $C$DW$T$13, DW_AT_encoding(DW_ATE_unsigned)
    3000                    .dwattr $C$DW$T$13, DW_AT_name("unsigned long")
    3001                    .dwattr $C$DW$T$13, DW_AT_byte_size(0x04)
    3002            
    3003            $C$DW$T$101     .dwtag  DW_TAG_typedef
    3004                    .dwattr $C$DW$T$101, DW_AT_name("__uint32_t")
    3005                    .dwattr $C$DW$T$101, DW_AT_type(*$C$DW$T$13)
    3006                    .dwattr $C$DW$T$101, DW_AT_language(DW_LANG_C)
    3007                    .dwattr $C$DW$T$101, DW_AT_decl_file("C:/ti/ccs1010/ccs/tools/compiler/ti-cgt-msp430_20.2.2.LT
    3008                    .dwattr $C$DW$T$101, DW_AT_decl_line(0x3b)
    3009                    .dwattr $C$DW$T$101, DW_AT_decl_column(0x18)
    3010            
    3011            $C$DW$T$102     .dwtag  DW_TAG_typedef
    3012                    .dwattr $C$DW$T$102, DW_AT_name("__clock_t")
    3013                    .dwattr $C$DW$T$102, DW_AT_type(*$C$DW$T$101)
    3014                    .dwattr $C$DW$T$102, DW_AT_language(DW_LANG_C)
    3015                    .dwattr $C$DW$T$102, DW_AT_decl_file("C:/ti/ccs1010/ccs/tools/compiler/ti-cgt-msp430_20.2.2.LT
    3016                    .dwattr $C$DW$T$102, DW_AT_decl_line(0x4a)
    3017                    .dwattr $C$DW$T$102, DW_AT_decl_column(0x14)
    3018            
MSP430 Assembler PC v20.2.2 Fri Oct 30 22:03:02 2020

Copyright (c) 2003-2018 Texas Instruments Incorporated
C:\Users\tyler\AppData\Local\Temp\{AE531C7E-F4C8-4E89-9BF9-24F4C1D7A278} PAGE   60

    3019            $C$DW$T$103     .dwtag  DW_TAG_typedef
    3020                    .dwattr $C$DW$T$103, DW_AT_name("__fflags_t")
    3021                    .dwattr $C$DW$T$103, DW_AT_type(*$C$DW$T$101)
    3022                    .dwattr $C$DW$T$103, DW_AT_language(DW_LANG_C)
    3023                    .dwattr $C$DW$T$103, DW_AT_decl_file("C:/ti/ccs1010/ccs/tools/compiler/ti-cgt-msp430_20.2.2.LT
    3024                    .dwattr $C$DW$T$103, DW_AT_decl_line(0x32)
    3025                    .dwattr $C$DW$T$103, DW_AT_decl_column(0x14)
    3026            
    3027            $C$DW$T$104     .dwtag  DW_TAG_typedef
    3028                    .dwattr $C$DW$T$104, DW_AT_name("__fixpt_t")
    3029                    .dwattr $C$DW$T$104, DW_AT_type(*$C$DW$T$101)
    3030                    .dwattr $C$DW$T$104, DW_AT_language(DW_LANG_C)
    3031                    .dwattr $C$DW$T$104, DW_AT_decl_file("C:/ti/ccs1010/ccs/tools/compiler/ti-cgt-msp430_20.2.2.LT
    3032                    .dwattr $C$DW$T$104, DW_AT_decl_line(0x81)
    3033                    .dwattr $C$DW$T$104, DW_AT_decl_column(0x14)
    3034            
    3035            $C$DW$T$105     .dwtag  DW_TAG_typedef
    3036                    .dwattr $C$DW$T$105, DW_AT_name("__gid_t")
    3037                    .dwattr $C$DW$T$105, DW_AT_type(*$C$DW$T$101)
    3038                    .dwattr $C$DW$T$105, DW_AT_language(DW_LANG_C)
    3039                    .dwattr $C$DW$T$105, DW_AT_decl_file("C:/ti/ccs1010/ccs/tools/compiler/ti-cgt-msp430_20.2.2.LT
    3040                    .dwattr $C$DW$T$105, DW_AT_decl_line(0x35)
    3041                    .dwattr $C$DW$T$105, DW_AT_decl_column(0x14)
    3042            
    3043            $C$DW$T$106     .dwtag  DW_TAG_typedef
    3044                    .dwattr $C$DW$T$106, DW_AT_name("__socklen_t")
    3045                    .dwattr $C$DW$T$106, DW_AT_type(*$C$DW$T$101)
    3046                    .dwattr $C$DW$T$106, DW_AT_language(DW_LANG_C)
    3047                    .dwattr $C$DW$T$106, DW_AT_decl_file("C:/ti/ccs1010/ccs/tools/compiler/ti-cgt-msp430_20.2.2.LT
    3048                    .dwattr $C$DW$T$106, DW_AT_decl_line(0x49)
    3049                    .dwattr $C$DW$T$106, DW_AT_decl_column(0x14)
    3050            
    3051            $C$DW$T$107     .dwtag  DW_TAG_typedef
    3052                    .dwattr $C$DW$T$107, DW_AT_name("__time_t")
    3053                    .dwattr $C$DW$T$107, DW_AT_type(*$C$DW$T$101)
    3054                    .dwattr $C$DW$T$107, DW_AT_language(DW_LANG_C)
    3055                    .dwattr $C$DW$T$107, DW_AT_decl_file("C:/ti/ccs1010/ccs/tools/compiler/ti-cgt-msp430_20.2.2.LT
    3056                    .dwattr $C$DW$T$107, DW_AT_decl_line(0x66)
    3057                    .dwattr $C$DW$T$107, DW_AT_decl_column(0x19)
    3058            
    3059            $C$DW$T$108     .dwtag  DW_TAG_typedef
    3060                    .dwattr $C$DW$T$108, DW_AT_name("__uid_t")
    3061                    .dwattr $C$DW$T$108, DW_AT_type(*$C$DW$T$101)
    3062                    .dwattr $C$DW$T$108, DW_AT_language(DW_LANG_C)
    3063                    .dwattr $C$DW$T$108, DW_AT_decl_file("C:/ti/ccs1010/ccs/tools/compiler/ti-cgt-msp430_20.2.2.LT
    3064                    .dwattr $C$DW$T$108, DW_AT_decl_line(0x4d)
    3065                    .dwattr $C$DW$T$108, DW_AT_decl_column(0x14)
    3066            
    3067            $C$DW$T$109     .dwtag  DW_TAG_typedef
    3068                    .dwattr $C$DW$T$109, DW_AT_name("__uint_fast32_t")
    3069                    .dwattr $C$DW$T$109, DW_AT_type(*$C$DW$T$101)
    3070                    .dwattr $C$DW$T$109, DW_AT_language(DW_LANG_C)
    3071                    .dwattr $C$DW$T$109, DW_AT_decl_file("C:/ti/ccs1010/ccs/tools/compiler/ti-cgt-msp430_20.2.2.LT
    3072                    .dwattr $C$DW$T$109, DW_AT_decl_line(0x72)
    3073                    .dwattr $C$DW$T$109, DW_AT_decl_column(0x14)
MSP430 Assembler PC v20.2.2 Fri Oct 30 22:03:02 2020

Copyright (c) 2003-2018 Texas Instruments Incorporated
C:\Users\tyler\AppData\Local\Temp\{AE531C7E-F4C8-4E89-9BF9-24F4C1D7A278} PAGE   61

    3074            
    3075            $C$DW$T$110     .dwtag  DW_TAG_typedef
    3076                    .dwattr $C$DW$T$110, DW_AT_name("uint_fast32_t")
    3077                    .dwattr $C$DW$T$110, DW_AT_type(*$C$DW$T$109)
    3078                    .dwattr $C$DW$T$110, DW_AT_language(DW_LANG_C)
    3079                    .dwattr $C$DW$T$110, DW_AT_decl_file("C:/ti/ccs1010/ccs/tools/compiler/ti-cgt-msp430_20.2.2.LT
    3080                    .dwattr $C$DW$T$110, DW_AT_decl_line(0x3b)
    3081                    .dwattr $C$DW$T$110, DW_AT_decl_column(0x1a)
    3082            
    3083            $C$DW$T$111     .dwtag  DW_TAG_typedef
    3084                    .dwattr $C$DW$T$111, DW_AT_name("__uint_least32_t")
    3085                    .dwattr $C$DW$T$111, DW_AT_type(*$C$DW$T$101)
    3086                    .dwattr $C$DW$T$111, DW_AT_language(DW_LANG_C)
    3087                    .dwattr $C$DW$T$111, DW_AT_decl_file("C:/ti/ccs1010/ccs/tools/compiler/ti-cgt-msp430_20.2.2.LT
    3088                    .dwattr $C$DW$T$111, DW_AT_decl_line(0x76)
    3089                    .dwattr $C$DW$T$111, DW_AT_decl_column(0x14)
    3090            
    3091            $C$DW$T$112     .dwtag  DW_TAG_typedef
    3092                    .dwattr $C$DW$T$112, DW_AT_name("__char32_t")
    3093                    .dwattr $C$DW$T$112, DW_AT_type(*$C$DW$T$111)
    3094                    .dwattr $C$DW$T$112, DW_AT_language(DW_LANG_C)
    3095                    .dwattr $C$DW$T$112, DW_AT_decl_file("C:/ti/ccs1010/ccs/tools/compiler/ti-cgt-msp430_20.2.2.LT
    3096                    .dwattr $C$DW$T$112, DW_AT_decl_line(0x72)
    3097                    .dwattr $C$DW$T$112, DW_AT_decl_column(0x1a)
    3098            
    3099            $C$DW$T$113     .dwtag  DW_TAG_typedef
    3100                    .dwattr $C$DW$T$113, DW_AT_name("uint_least32_t")
    3101                    .dwattr $C$DW$T$113, DW_AT_type(*$C$DW$T$111)
    3102                    .dwattr $C$DW$T$113, DW_AT_language(DW_LANG_C)
    3103                    .dwattr $C$DW$T$113, DW_AT_decl_file("C:/ti/ccs1010/ccs/tools/compiler/ti-cgt-msp430_20.2.2.LT
    3104                    .dwattr $C$DW$T$113, DW_AT_decl_line(0x31)
    3105                    .dwattr $C$DW$T$113, DW_AT_decl_column(0x1a)
    3106            
    3107            $C$DW$T$114     .dwtag  DW_TAG_typedef
    3108                    .dwattr $C$DW$T$114, DW_AT_name("__uintfptr_t")
    3109                    .dwattr $C$DW$T$114, DW_AT_type(*$C$DW$T$101)
    3110                    .dwattr $C$DW$T$114, DW_AT_language(DW_LANG_C)
    3111                    .dwattr $C$DW$T$114, DW_AT_decl_file("C:/ti/ccs1010/ccs/tools/compiler/ti-cgt-msp430_20.2.2.LT
    3112                    .dwattr $C$DW$T$114, DW_AT_decl_line(0x68)
    3113                    .dwattr $C$DW$T$114, DW_AT_decl_column(0x14)
    3114            
    3115            $C$DW$T$115     .dwtag  DW_TAG_typedef
    3116                    .dwattr $C$DW$T$115, DW_AT_name("__vm_offset_t")
    3117                    .dwattr $C$DW$T$115, DW_AT_type(*$C$DW$T$101)
    3118                    .dwattr $C$DW$T$115, DW_AT_language(DW_LANG_C)
    3119                    .dwattr $C$DW$T$115, DW_AT_decl_file("C:/ti/ccs1010/ccs/tools/compiler/ti-cgt-msp430_20.2.2.LT
    3120                    .dwattr $C$DW$T$115, DW_AT_decl_line(0x79)
    3121                    .dwattr $C$DW$T$115, DW_AT_decl_column(0x14)
    3122            
    3123            $C$DW$T$116     .dwtag  DW_TAG_typedef
    3124                    .dwattr $C$DW$T$116, DW_AT_name("__vm_paddr_t")
    3125                    .dwattr $C$DW$T$116, DW_AT_type(*$C$DW$T$101)
    3126                    .dwattr $C$DW$T$116, DW_AT_language(DW_LANG_C)
    3127                    .dwattr $C$DW$T$116, DW_AT_decl_file("C:/ti/ccs1010/ccs/tools/compiler/ti-cgt-msp430_20.2.2.LT
    3128                    .dwattr $C$DW$T$116, DW_AT_decl_line(0x7a)
MSP430 Assembler PC v20.2.2 Fri Oct 30 22:03:02 2020

Copyright (c) 2003-2018 Texas Instruments Incorporated
C:\Users\tyler\AppData\Local\Temp\{AE531C7E-F4C8-4E89-9BF9-24F4C1D7A278} PAGE   62

    3129                    .dwattr $C$DW$T$116, DW_AT_decl_column(0x14)
    3130            
    3131            $C$DW$T$117     .dwtag  DW_TAG_typedef
    3132                    .dwattr $C$DW$T$117, DW_AT_name("__vm_size_t")
    3133                    .dwattr $C$DW$T$117, DW_AT_type(*$C$DW$T$101)
    3134                    .dwattr $C$DW$T$117, DW_AT_language(DW_LANG_C)
    3135                    .dwattr $C$DW$T$117, DW_AT_decl_file("C:/ti/ccs1010/ccs/tools/compiler/ti-cgt-msp430_20.2.2.LT
    3136                    .dwattr $C$DW$T$117, DW_AT_decl_line(0x7b)
    3137                    .dwattr $C$DW$T$117, DW_AT_decl_column(0x14)
    3138            
    3139            $C$DW$T$118     .dwtag  DW_TAG_typedef
    3140                    .dwattr $C$DW$T$118, DW_AT_name("uint32_t")
    3141                    .dwattr $C$DW$T$118, DW_AT_type(*$C$DW$T$101)
    3142                    .dwattr $C$DW$T$118, DW_AT_language(DW_LANG_C)
    3143                    .dwattr $C$DW$T$118, DW_AT_decl_file("C:/ti/ccs1010/ccs/tools/compiler/ti-cgt-msp430_20.2.2.LT
    3144                    .dwattr $C$DW$T$118, DW_AT_decl_line(0x46)
    3145                    .dwattr $C$DW$T$118, DW_AT_decl_column(0x15)
    3146            
    3147            $C$DW$T$14      .dwtag  DW_TAG_base_type
    3148                    .dwattr $C$DW$T$14, DW_AT_encoding(DW_ATE_signed)
    3149                    .dwattr $C$DW$T$14, DW_AT_name("long long")
    3150                    .dwattr $C$DW$T$14, DW_AT_byte_size(0x08)
    3151            
    3152            $C$DW$T$119     .dwtag  DW_TAG_typedef
    3153                    .dwattr $C$DW$T$119, DW_AT_name("__int64_t")
    3154                    .dwattr $C$DW$T$119, DW_AT_type(*$C$DW$T$14)
    3155                    .dwattr $C$DW$T$119, DW_AT_language(DW_LANG_C)
    3156                    .dwattr $C$DW$T$119, DW_AT_decl_file("C:/ti/ccs1010/ccs/tools/compiler/ti-cgt-msp430_20.2.2.LT
    3157                    .dwattr $C$DW$T$119, DW_AT_decl_line(0x40)
    3158                    .dwattr $C$DW$T$119, DW_AT_decl_column(0x14)
    3159            
    3160            $C$DW$T$120     .dwtag  DW_TAG_typedef
    3161                    .dwattr $C$DW$T$120, DW_AT_name("__blkcnt_t")
    3162                    .dwattr $C$DW$T$120, DW_AT_type(*$C$DW$T$119)
    3163                    .dwattr $C$DW$T$120, DW_AT_language(DW_LANG_C)
    3164                    .dwattr $C$DW$T$120, DW_AT_decl_file("C:/ti/ccs1010/ccs/tools/compiler/ti-cgt-msp430_20.2.2.LT
    3165                    .dwattr $C$DW$T$120, DW_AT_decl_line(0x30)
    3166                    .dwattr $C$DW$T$120, DW_AT_decl_column(0x13)
    3167            
    3168            $C$DW$T$121     .dwtag  DW_TAG_typedef
    3169                    .dwattr $C$DW$T$121, DW_AT_name("__id_t")
    3170                    .dwattr $C$DW$T$121, DW_AT_type(*$C$DW$T$119)
    3171                    .dwattr $C$DW$T$121, DW_AT_language(DW_LANG_C)
    3172                    .dwattr $C$DW$T$121, DW_AT_decl_file("C:/ti/ccs1010/ccs/tools/compiler/ti-cgt-msp430_20.2.2.LT
    3173                    .dwattr $C$DW$T$121, DW_AT_decl_line(0x36)
    3174                    .dwattr $C$DW$T$121, DW_AT_decl_column(0x13)
    3175            
    3176            $C$DW$T$122     .dwtag  DW_TAG_typedef
    3177                    .dwattr $C$DW$T$122, DW_AT_name("__int_fast64_t")
    3178                    .dwattr $C$DW$T$122, DW_AT_type(*$C$DW$T$119)
    3179                    .dwattr $C$DW$T$122, DW_AT_language(DW_LANG_C)
    3180                    .dwattr $C$DW$T$122, DW_AT_decl_file("C:/ti/ccs1010/ccs/tools/compiler/ti-cgt-msp430_20.2.2.LT
    3181                    .dwattr $C$DW$T$122, DW_AT_decl_line(0x59)
    3182                    .dwattr $C$DW$T$122, DW_AT_decl_column(0x13)
    3183            
MSP430 Assembler PC v20.2.2 Fri Oct 30 22:03:02 2020

Copyright (c) 2003-2018 Texas Instruments Incorporated
C:\Users\tyler\AppData\Local\Temp\{AE531C7E-F4C8-4E89-9BF9-24F4C1D7A278} PAGE   63

    3184            $C$DW$T$123     .dwtag  DW_TAG_typedef
    3185                    .dwattr $C$DW$T$123, DW_AT_name("int_fast64_t")
    3186                    .dwattr $C$DW$T$123, DW_AT_type(*$C$DW$T$122)
    3187                    .dwattr $C$DW$T$123, DW_AT_language(DW_LANG_C)
    3188                    .dwattr $C$DW$T$123, DW_AT_decl_file("C:/ti/ccs1010/ccs/tools/compiler/ti-cgt-msp430_20.2.2.LT
    3189                    .dwattr $C$DW$T$123, DW_AT_decl_line(0x37)
    3190                    .dwattr $C$DW$T$123, DW_AT_decl_column(0x19)
    3191            
    3192            $C$DW$T$124     .dwtag  DW_TAG_typedef
    3193                    .dwattr $C$DW$T$124, DW_AT_name("__int_least64_t")
    3194                    .dwattr $C$DW$T$124, DW_AT_type(*$C$DW$T$119)
    3195                    .dwattr $C$DW$T$124, DW_AT_language(DW_LANG_C)
    3196                    .dwattr $C$DW$T$124, DW_AT_decl_file("C:/ti/ccs1010/ccs/tools/compiler/ti-cgt-msp430_20.2.2.LT
    3197                    .dwattr $C$DW$T$124, DW_AT_decl_line(0x5d)
    3198                    .dwattr $C$DW$T$124, DW_AT_decl_column(0x13)
    3199            
    3200            $C$DW$T$125     .dwtag  DW_TAG_typedef
    3201                    .dwattr $C$DW$T$125, DW_AT_name("int_least64_t")
    3202                    .dwattr $C$DW$T$125, DW_AT_type(*$C$DW$T$124)
    3203                    .dwattr $C$DW$T$125, DW_AT_language(DW_LANG_C)
    3204                    .dwattr $C$DW$T$125, DW_AT_decl_file("C:/ti/ccs1010/ccs/tools/compiler/ti-cgt-msp430_20.2.2.LT
    3205                    .dwattr $C$DW$T$125, DW_AT_decl_line(0x2d)
    3206                    .dwattr $C$DW$T$125, DW_AT_decl_column(0x1a)
    3207            
    3208            $C$DW$T$126     .dwtag  DW_TAG_typedef
    3209                    .dwattr $C$DW$T$126, DW_AT_name("__intmax_t")
    3210                    .dwattr $C$DW$T$126, DW_AT_type(*$C$DW$T$119)
    3211                    .dwattr $C$DW$T$126, DW_AT_language(DW_LANG_C)
    3212                    .dwattr $C$DW$T$126, DW_AT_decl_file("C:/ti/ccs1010/ccs/tools/compiler/ti-cgt-msp430_20.2.2.LT
    3213                    .dwattr $C$DW$T$126, DW_AT_decl_line(0x4f)
    3214                    .dwattr $C$DW$T$126, DW_AT_decl_column(0x13)
    3215            
    3216            $C$DW$T$127     .dwtag  DW_TAG_typedef
    3217                    .dwattr $C$DW$T$127, DW_AT_name("intmax_t")
    3218                    .dwattr $C$DW$T$127, DW_AT_type(*$C$DW$T$126)
    3219                    .dwattr $C$DW$T$127, DW_AT_language(DW_LANG_C)
    3220                    .dwattr $C$DW$T$127, DW_AT_decl_file("C:/ti/ccs1010/ccs/tools/compiler/ti-cgt-msp430_20.2.2.LT
    3221                    .dwattr $C$DW$T$127, DW_AT_decl_line(0x58)
    3222                    .dwattr $C$DW$T$127, DW_AT_decl_column(0x15)
    3223            
    3224            $C$DW$T$128     .dwtag  DW_TAG_typedef
    3225                    .dwattr $C$DW$T$128, DW_AT_name("__off64_t")
    3226                    .dwattr $C$DW$T$128, DW_AT_type(*$C$DW$T$119)
    3227                    .dwattr $C$DW$T$128, DW_AT_language(DW_LANG_C)
    3228                    .dwattr $C$DW$T$128, DW_AT_decl_file("C:/ti/ccs1010/ccs/tools/compiler/ti-cgt-msp430_20.2.2.LT
    3229                    .dwattr $C$DW$T$128, DW_AT_decl_line(0x3f)
    3230                    .dwattr $C$DW$T$128, DW_AT_decl_column(0x13)
    3231            
    3232            $C$DW$T$129     .dwtag  DW_TAG_typedef
    3233                    .dwattr $C$DW$T$129, DW_AT_name("__rlim_t")
    3234                    .dwattr $C$DW$T$129, DW_AT_type(*$C$DW$T$119)
    3235                    .dwattr $C$DW$T$129, DW_AT_language(DW_LANG_C)
    3236                    .dwattr $C$DW$T$129, DW_AT_decl_file("C:/ti/ccs1010/ccs/tools/compiler/ti-cgt-msp430_20.2.2.LT
    3237                    .dwattr $C$DW$T$129, DW_AT_decl_line(0x41)
    3238                    .dwattr $C$DW$T$129, DW_AT_decl_column(0x13)
MSP430 Assembler PC v20.2.2 Fri Oct 30 22:03:02 2020

Copyright (c) 2003-2018 Texas Instruments Incorporated
C:\Users\tyler\AppData\Local\Temp\{AE531C7E-F4C8-4E89-9BF9-24F4C1D7A278} PAGE   64

    3239            
    3240            $C$DW$T$130     .dwtag  DW_TAG_typedef
    3241                    .dwattr $C$DW$T$130, DW_AT_name("int64_t")
    3242                    .dwattr $C$DW$T$130, DW_AT_type(*$C$DW$T$119)
    3243                    .dwattr $C$DW$T$130, DW_AT_language(DW_LANG_C)
    3244                    .dwattr $C$DW$T$130, DW_AT_decl_file("C:/ti/ccs1010/ccs/tools/compiler/ti-cgt-msp430_20.2.2.LT
    3245                    .dwattr $C$DW$T$130, DW_AT_decl_line(0x35)
    3246                    .dwattr $C$DW$T$130, DW_AT_decl_column(0x14)
    3247            
    3248            $C$DW$T$15      .dwtag  DW_TAG_base_type
    3249                    .dwattr $C$DW$T$15, DW_AT_encoding(DW_ATE_unsigned)
    3250                    .dwattr $C$DW$T$15, DW_AT_name("unsigned long long")
    3251                    .dwattr $C$DW$T$15, DW_AT_byte_size(0x08)
    3252            
    3253            $C$DW$T$131     .dwtag  DW_TAG_typedef
    3254                    .dwattr $C$DW$T$131, DW_AT_name("__uint64_t")
    3255                    .dwattr $C$DW$T$131, DW_AT_type(*$C$DW$T$15)
    3256                    .dwattr $C$DW$T$131, DW_AT_language(DW_LANG_C)
    3257                    .dwattr $C$DW$T$131, DW_AT_decl_file("C:/ti/ccs1010/ccs/tools/compiler/ti-cgt-msp430_20.2.2.LT
    3258                    .dwattr $C$DW$T$131, DW_AT_decl_line(0x45)
    3259                    .dwattr $C$DW$T$131, DW_AT_decl_column(0x1c)
    3260            
    3261            $C$DW$T$132     .dwtag  DW_TAG_typedef
    3262                    .dwattr $C$DW$T$132, DW_AT_name("__dev_t")
    3263                    .dwattr $C$DW$T$132, DW_AT_type(*$C$DW$T$131)
    3264                    .dwattr $C$DW$T$132, DW_AT_language(DW_LANG_C)
    3265                    .dwattr $C$DW$T$132, DW_AT_decl_file("C:/ti/ccs1010/ccs/tools/compiler/ti-cgt-msp430_20.2.2.LT
    3266                    .dwattr $C$DW$T$132, DW_AT_decl_line(0x7f)
    3267                    .dwattr $C$DW$T$132, DW_AT_decl_column(0x14)
    3268            
    3269            $C$DW$T$133     .dwtag  DW_TAG_typedef
    3270                    .dwattr $C$DW$T$133, DW_AT_name("__fsblkcnt_t")
    3271                    .dwattr $C$DW$T$133, DW_AT_type(*$C$DW$T$131)
    3272                    .dwattr $C$DW$T$133, DW_AT_language(DW_LANG_C)
    3273                    .dwattr $C$DW$T$133, DW_AT_decl_file("C:/ti/ccs1010/ccs/tools/compiler/ti-cgt-msp430_20.2.2.LT
    3274                    .dwattr $C$DW$T$133, DW_AT_decl_line(0x33)
    3275                    .dwattr $C$DW$T$133, DW_AT_decl_column(0x14)
    3276            
    3277            $C$DW$T$134     .dwtag  DW_TAG_typedef
    3278                    .dwattr $C$DW$T$134, DW_AT_name("__fsfilcnt_t")
    3279                    .dwattr $C$DW$T$134, DW_AT_type(*$C$DW$T$131)
    3280                    .dwattr $C$DW$T$134, DW_AT_language(DW_LANG_C)
    3281                    .dwattr $C$DW$T$134, DW_AT_decl_file("C:/ti/ccs1010/ccs/tools/compiler/ti-cgt-msp430_20.2.2.LT
    3282                    .dwattr $C$DW$T$134, DW_AT_decl_line(0x34)
    3283                    .dwattr $C$DW$T$134, DW_AT_decl_column(0x14)
    3284            
    3285            $C$DW$T$135     .dwtag  DW_TAG_typedef
    3286                    .dwattr $C$DW$T$135, DW_AT_name("__ino_t")
    3287                    .dwattr $C$DW$T$135, DW_AT_type(*$C$DW$T$131)
    3288                    .dwattr $C$DW$T$135, DW_AT_language(DW_LANG_C)
    3289                    .dwattr $C$DW$T$135, DW_AT_decl_file("C:/ti/ccs1010/ccs/tools/compiler/ti-cgt-msp430_20.2.2.LT
    3290                    .dwattr $C$DW$T$135, DW_AT_decl_line(0x37)
    3291                    .dwattr $C$DW$T$135, DW_AT_decl_column(0x14)
    3292            
    3293            $C$DW$T$136     .dwtag  DW_TAG_typedef
MSP430 Assembler PC v20.2.2 Fri Oct 30 22:03:02 2020

Copyright (c) 2003-2018 Texas Instruments Incorporated
C:\Users\tyler\AppData\Local\Temp\{AE531C7E-F4C8-4E89-9BF9-24F4C1D7A278} PAGE   65

    3294                    .dwattr $C$DW$T$136, DW_AT_name("__nlink_t")
    3295                    .dwattr $C$DW$T$136, DW_AT_type(*$C$DW$T$131)
    3296                    .dwattr $C$DW$T$136, DW_AT_language(DW_LANG_C)
    3297                    .dwattr $C$DW$T$136, DW_AT_decl_file("C:/ti/ccs1010/ccs/tools/compiler/ti-cgt-msp430_20.2.2.LT
    3298                    .dwattr $C$DW$T$136, DW_AT_decl_line(0x3d)
    3299                    .dwattr $C$DW$T$136, DW_AT_decl_column(0x14)
    3300            
    3301            $C$DW$T$137     .dwtag  DW_TAG_typedef
    3302                    .dwattr $C$DW$T$137, DW_AT_name("__uint_fast64_t")
    3303                    .dwattr $C$DW$T$137, DW_AT_type(*$C$DW$T$131)
    3304                    .dwattr $C$DW$T$137, DW_AT_language(DW_LANG_C)
    3305                    .dwattr $C$DW$T$137, DW_AT_decl_file("C:/ti/ccs1010/ccs/tools/compiler/ti-cgt-msp430_20.2.2.LT
    3306                    .dwattr $C$DW$T$137, DW_AT_decl_line(0x73)
    3307                    .dwattr $C$DW$T$137, DW_AT_decl_column(0x14)
    3308            
    3309            $C$DW$T$138     .dwtag  DW_TAG_typedef
    3310                    .dwattr $C$DW$T$138, DW_AT_name("uint_fast64_t")
    3311                    .dwattr $C$DW$T$138, DW_AT_type(*$C$DW$T$137)
    3312                    .dwattr $C$DW$T$138, DW_AT_language(DW_LANG_C)
    3313                    .dwattr $C$DW$T$138, DW_AT_decl_file("C:/ti/ccs1010/ccs/tools/compiler/ti-cgt-msp430_20.2.2.LT
    3314                    .dwattr $C$DW$T$138, DW_AT_decl_line(0x3c)
    3315                    .dwattr $C$DW$T$138, DW_AT_decl_column(0x1a)
    3316            
    3317            $C$DW$T$139     .dwtag  DW_TAG_typedef
    3318                    .dwattr $C$DW$T$139, DW_AT_name("__uint_least64_t")
    3319                    .dwattr $C$DW$T$139, DW_AT_type(*$C$DW$T$131)
    3320                    .dwattr $C$DW$T$139, DW_AT_language(DW_LANG_C)
    3321                    .dwattr $C$DW$T$139, DW_AT_decl_file("C:/ti/ccs1010/ccs/tools/compiler/ti-cgt-msp430_20.2.2.LT
    3322                    .dwattr $C$DW$T$139, DW_AT_decl_line(0x77)
    3323                    .dwattr $C$DW$T$139, DW_AT_decl_column(0x14)
    3324            
    3325            $C$DW$T$140     .dwtag  DW_TAG_typedef
    3326                    .dwattr $C$DW$T$140, DW_AT_name("uint_least64_t")
    3327                    .dwattr $C$DW$T$140, DW_AT_type(*$C$DW$T$139)
    3328                    .dwattr $C$DW$T$140, DW_AT_language(DW_LANG_C)
    3329                    .dwattr $C$DW$T$140, DW_AT_decl_file("C:/ti/ccs1010/ccs/tools/compiler/ti-cgt-msp430_20.2.2.LT
    3330                    .dwattr $C$DW$T$140, DW_AT_decl_line(0x32)
    3331                    .dwattr $C$DW$T$140, DW_AT_decl_column(0x1a)
    3332            
    3333            $C$DW$T$141     .dwtag  DW_TAG_typedef
    3334                    .dwattr $C$DW$T$141, DW_AT_name("__uintmax_t")
    3335                    .dwattr $C$DW$T$141, DW_AT_type(*$C$DW$T$131)
    3336                    .dwattr $C$DW$T$141, DW_AT_language(DW_LANG_C)
    3337                    .dwattr $C$DW$T$141, DW_AT_decl_file("C:/ti/ccs1010/ccs/tools/compiler/ti-cgt-msp430_20.2.2.LT
    3338                    .dwattr $C$DW$T$141, DW_AT_decl_line(0x69)
    3339                    .dwattr $C$DW$T$141, DW_AT_decl_column(0x14)
    3340            
    3341            $C$DW$T$142     .dwtag  DW_TAG_typedef
    3342                    .dwattr $C$DW$T$142, DW_AT_name("__rman_res_t")
    3343                    .dwattr $C$DW$T$142, DW_AT_type(*$C$DW$T$141)
    3344                    .dwattr $C$DW$T$142, DW_AT_language(DW_LANG_C)
    3345                    .dwattr $C$DW$T$142, DW_AT_decl_file("C:/ti/ccs1010/ccs/tools/compiler/ti-cgt-msp430_20.2.2.LT
    3346                    .dwattr $C$DW$T$142, DW_AT_decl_line(0x9a)
    3347                    .dwattr $C$DW$T$142, DW_AT_decl_column(0x19)
    3348            
MSP430 Assembler PC v20.2.2 Fri Oct 30 22:03:02 2020

Copyright (c) 2003-2018 Texas Instruments Incorporated
C:\Users\tyler\AppData\Local\Temp\{AE531C7E-F4C8-4E89-9BF9-24F4C1D7A278} PAGE   66

    3349            $C$DW$T$143     .dwtag  DW_TAG_typedef
    3350                    .dwattr $C$DW$T$143, DW_AT_name("uintmax_t")
    3351                    .dwattr $C$DW$T$143, DW_AT_type(*$C$DW$T$141)
    3352                    .dwattr $C$DW$T$143, DW_AT_language(DW_LANG_C)
    3353                    .dwattr $C$DW$T$143, DW_AT_decl_file("C:/ti/ccs1010/ccs/tools/compiler/ti-cgt-msp430_20.2.2.LT
    3354                    .dwattr $C$DW$T$143, DW_AT_decl_line(0x5c)
    3355                    .dwattr $C$DW$T$143, DW_AT_decl_column(0x16)
    3356            
    3357            $C$DW$T$144     .dwtag  DW_TAG_typedef
    3358                    .dwattr $C$DW$T$144, DW_AT_name("uint64_t")
    3359                    .dwattr $C$DW$T$144, DW_AT_type(*$C$DW$T$131)
    3360                    .dwattr $C$DW$T$144, DW_AT_language(DW_LANG_C)
    3361                    .dwattr $C$DW$T$144, DW_AT_decl_file("C:/ti/ccs1010/ccs/tools/compiler/ti-cgt-msp430_20.2.2.LT
    3362                    .dwattr $C$DW$T$144, DW_AT_decl_line(0x4b)
    3363                    .dwattr $C$DW$T$144, DW_AT_decl_column(0x15)
    3364            
    3365            $C$DW$T$16      .dwtag  DW_TAG_base_type
    3366                    .dwattr $C$DW$T$16, DW_AT_encoding(DW_ATE_float)
    3367                    .dwattr $C$DW$T$16, DW_AT_name("float")
    3368                    .dwattr $C$DW$T$16, DW_AT_byte_size(0x04)
    3369            
    3370            $C$DW$T$145     .dwtag  DW_TAG_typedef
    3371                    .dwattr $C$DW$T$145, DW_AT_name("__float_t")
    3372                    .dwattr $C$DW$T$145, DW_AT_type(*$C$DW$T$16)
    3373                    .dwattr $C$DW$T$145, DW_AT_language(DW_LANG_C)
    3374                    .dwattr $C$DW$T$145, DW_AT_decl_file("C:/ti/ccs1010/ccs/tools/compiler/ti-cgt-msp430_20.2.2.LT
    3375                    .dwattr $C$DW$T$145, DW_AT_decl_line(0x4d)
    3376                    .dwattr $C$DW$T$145, DW_AT_decl_column(0x10)
    3377            
    3378            $C$DW$T$17      .dwtag  DW_TAG_base_type
    3379                    .dwattr $C$DW$T$17, DW_AT_encoding(DW_ATE_float)
    3380                    .dwattr $C$DW$T$17, DW_AT_name("double")
    3381                    .dwattr $C$DW$T$17, DW_AT_byte_size(0x08)
    3382            
    3383            $C$DW$T$146     .dwtag  DW_TAG_typedef
    3384                    .dwattr $C$DW$T$146, DW_AT_name("__double_t")
    3385                    .dwattr $C$DW$T$146, DW_AT_type(*$C$DW$T$17)
    3386                    .dwattr $C$DW$T$146, DW_AT_language(DW_LANG_C)
    3387                    .dwattr $C$DW$T$146, DW_AT_decl_file("C:/ti/ccs1010/ccs/tools/compiler/ti-cgt-msp430_20.2.2.LT
    3388                    .dwattr $C$DW$T$146, DW_AT_decl_line(0x4c)
    3389                    .dwattr $C$DW$T$146, DW_AT_decl_column(0x11)
    3390            
    3391            $C$DW$T$18      .dwtag  DW_TAG_base_type
    3392                    .dwattr $C$DW$T$18, DW_AT_encoding(DW_ATE_float)
    3393                    .dwattr $C$DW$T$18, DW_AT_name("long double")
    3394                    .dwattr $C$DW$T$18, DW_AT_byte_size(0x08)
    3395            
    3396            
    3397            $C$DW$T$148     .dwtag  DW_TAG_array_type
    3398                    .dwattr $C$DW$T$148, DW_AT_type(*$C$DW$T$6)
    3399                    .dwattr $C$DW$T$148, DW_AT_language(DW_LANG_C)
    3400                    .dwattr $C$DW$T$148, DW_AT_byte_size(0x12)
    3401            $C$DW$55        .dwtag  DW_TAG_subrange_type
    3402                    .dwattr $C$DW$55, DW_AT_upper_bound(0x11)
    3403            
MSP430 Assembler PC v20.2.2 Fri Oct 30 22:03:02 2020

Copyright (c) 2003-2018 Texas Instruments Incorporated
C:\Users\tyler\AppData\Local\Temp\{AE531C7E-F4C8-4E89-9BF9-24F4C1D7A278} PAGE   67

    3404                    .dwendtag $C$DW$T$148
    3405            
    3406            
    3407            $C$DW$T$149     .dwtag  DW_TAG_array_type
    3408                    .dwattr $C$DW$T$149, DW_AT_type(*$C$DW$T$6)
    3409                    .dwattr $C$DW$T$149, DW_AT_language(DW_LANG_C)
    3410                    .dwattr $C$DW$T$149, DW_AT_byte_size(0x32)
    3411            $C$DW$56        .dwtag  DW_TAG_subrange_type
    3412                    .dwattr $C$DW$56, DW_AT_upper_bound(0x31)
    3413            
    3414                    .dwendtag $C$DW$T$149
